(lp0
(dp1
S'facebookData'
p2
Velsa bonafont edit si piensa en lo problema en qu piensa translat si piensa en lo problema en qu piensa www mujerinsustanci com mujer insustanci more mujer insustanci like like like comment share peopl like write comment press enter post elsa bonafont llevar mdico en tu bolsillo daniel kraft entrevista muy interesant elfuturoeson que ya uso una aplicacin para meditar esto va mucho ms all tu iphon podr medir tu onda cerebral cuando est meditando medir tu corazn despu una operacin hacert una prtesi impresin que nio en frica kilmetro del hospit ms cercano pueda mandar el resultado prueba orina sangr trav dispositivo increbl como la medicina se est convirtiendo en mobil more feel surpris translat daniel kraft singular univers tu mdico te va recetar aplicacion entra en http one elpai com suscrbet nuestro canal youtub http bit ly sgueno en youtub com comment like comment share peopl like remov miria muoz wow interesant la app que usa es headspac translat like repli juli remov elsa bonafont miria muoz si encanta wink emoticonse translat like repli juli miria muoz repli repli write comment press enter post elsa bonafont edit muy interesant la entrevista el futuro es one ocelot jugador videojuego profesion contando cmo pued ganar ms milln euro elfuturoeson equivocado profesin frown emoticon translat ocelot jugador profesion videojuego te explica cmo ganar milln euro en lo carlo rodrguez ocelot jugador leagu legend te explica qu son lo esport cmo es la vida ger profesion one elpai com share like comment share peopl like share write comment press enter post elsa bonafont chang profil pictur comment like comment share peopl like remov miguel ngel bonafont serrano guaprrima como siempr elsa bonafont translat januari like remov adriana onandia qu guapa translat januari like remov sara bonafont serrano te queda el pelo genial esta monisimase translat januari like remov jp ironkiwi arnau martin pue gustase translat juli like write comment press enter post elsa bonafont edit muy interesant la entrevista el futuro es one ocelot jugador videojuego profesion contando cmo pued ganar ms milln euro elfuturoeson equivocado profesin frown emoticon translat ocelot jugador profesion videojuego te explica cmo ganar milln euro en lo carlo rodrguez ocelot jugador leagu legend te explica qu son lo esport cmo es la vida ger profesion one elpai com share like comment share peopl like share write comment press enter post elsa bonafont chang profil pictur comment like comment share peopl like remov miguel ngel bonafont serrano guaprrima como siempr elsa bonafont translat januari like remov adriana onandia qu guapa translat januari like remov sara bonafont serrano te queda el pelo genial esta monisimase translat januari like remov jp ironkiwi arnau martin pue gustase translat juli like write comment press enter post
p3
sS'linkedInData'
p4
(dp5
S'majors'
p6
(lp7
Vmarket
p8
aVcommun media studi
p9
aVjournal
p10
aVfine studio art
p11
asS'description'
p12
Vinfluenc advoc bassador market onlin mobil market revenu manag social media commerc social commerc commun writer profession over year experi varieti compani design social media agenc proactiv creativ passion individu strong interperson leadership commun skill etern student learn new current spend time work cmo brandman marvelcrowd work professor une univers manag sever collabor blog misapisportuscooki com alovelymad com br br have work social media director arnold madrid hava group market onlin revenu manag specialist prisa el pa cinco social media specialist territorio creativo casadellibro com ve work journalist agencia efe graphic design year grupo zeta cuor magazin taller creativo dise br br master corpor commun universidad alcal market onlin commerc universitat barcelona bachelor journal universidad carlo iii fine art universidad complutens ve complet studi social media have skill copywrit blog br br influenc advoc bassador market br onlin mobil market br revenu manag br crm br social media market strateg plan report brand monitor social media analyt content curat custom servic digit ident commun manag servic platform br commerc social commerc br journal corpor commun onlin commun br blog br photographi graphic design
p13
sS'title'
p14
Vcmo account manag busi develo en brandman marvelcrowd
p15
sS'skills'
p16
(lp17
Vonlin market
p18
aVcommun manag
p19
aVweb 0
p20
aVsocial media market
p21
aVblog
p22
aVblog
p23
aVsocial media
p24
aVsocial network
p25
aVfacebook
p26
aVblog manag
p27
aVe commerc
p28
aVmobil market
p29
aVemail market
p30
aVcontent manag
p31
aVstrateg plan
p32
aVtwitter
p33
aVweb market
p34
aVdigit ident
p35
aVuser experi
p36
aVmarket
p37
aVjournal
p38
aVblog softwar
p39
aVpress releas
p40
aVwordpress
p41
aVsocial custom servic
p42
aVonlin adversit
p43
aVcopywrit
p44
aVevent manag
p45
aVcorpor blog
p46
aVcrm
p47
aVmobil app
p48
aVcm
p49
aVcorpor commun
p50
aVsem
p51
aVgraphic design
p52
aVcorpor commun
p53
aVphotographi
p54
aVrevenu manag
p55
aVinfluenc market
p56
aVadvoc market
p57
aVbassador market
p58
aVcontent market
p59
asS'positions'
p60
(lp61
Vinstagr
p62
aVfounder blogger
p63
aVcmo account manag busi develo
p64
aVcmo account manag busi develo
p65
aVprofessor onlin market social media
p66
aVfounder blogger
p67
aVblogger en digo social
p68
aVspeaker
p69
aVgoogl expert develo content academ cours
p70
aVhead social media arnold madrid grupo hava
p71
aVonlin market revenu manag paid digit content
p72
aVbusi develo social media
p73
aVsocial media analyst
p74
aVsocial media manag freelanc
p75
aVsocial media specialist
p76
aVcorpor commun market
p77
aVtelevis journalist internship
p78
aVgraphic design
p79
aVmeritorio direct
p80
aVgraphic design
p81
aVsupervisor proyect
p82
aVgraphic internship
p83
asS'industry'
p84
Vmarket advertis
p85
sS'jobDescriptions'
p86
(lp87
Vonlin market social media professor une foundat
p88
aVune foundat une univers blog
p89
aVxtrelan web blog content strategi sep http xtrelan es xtrelan startup
p90
aVrespons develo academ content googl
p91
aVsupport graphic depart
p92
asS'othersAlsoViewed'
p93
(lp94
Vceo brandman
p95
aVredactora en marvel crowd
p96
aVperiodista digit content market copywrit social media
p97
aVsocial media influenc relat brand manic marvelcrowd
p98
aVdirectora market en grupo debuenatinta
p99
aVpr account manag en brandman marvelcrowd
p100
aVsocial media comunicaci onlin market contenido market digit comunicaci corporativa
p101
aVsocial media manag en la despensa
p102
aVdirectora del departento medio social en relev traffic
p103
aVdirector operacion consultor market onlin especialista sem adword analyt socio fundador idento
p104
asS'interrests'
p105
(lp106
Vyoga
p107
aVmind
p108
aVviaj
p109
aVfotograf
p110
aVdise o
p111
aVart
p112
aVlectura
p113
aVcine
p114
aVcomunici n
p115
aVweb
p116
asS'schools'
p117
(lp118
Vuniversitat barcelona
p119
aVuniversidad alcal
p120
aVuniversidad carlo iii madrid
p121
aVuniversidad complutens madrid
p122
assS'twitterData'
p123
(dp124
S'tweets'
p125
(lp126
Vvictorclar thank
p127
asS'userDescription'
p128
Vcmo blogger teacher psycholog student mindful yoga lover reader photograph travel
p129
ssa(dp130
g2
Vdavid lee updat hi cover photo edit pc austin hyde san diego bmw like comment share write comment press enter post david lee updat hi cover photo edit love seri photo taken pirelli world challeng chpionship like like comment share peopl like write comment press enter post david lee edit tesla car sale know look certifi pre tesla brand new tesla help process select car order deliveri are readi switch one best electr vehicl public avail specialist stellar auto sourc more comment like comment share peopl like remov grander marizan vlad ko there buy tesla like repli remov mike paisan work pirelli anymor like repli remov david lee m still pirelli side project have partner deliv car more sale market like remov rashid mouzdybaev hey m let talk like repli june write comment press enter post david lee edit mbenz car deal limit time deal time trade week merced benz premium msrp month month mile onli fee tax total pocket demo vehicl onli mile near perfect more comment like comment share peopl like remov alexi tzap whi have nice thing like like repli june remov david lee dog dog like june remov grander marizan lol like repli june remov francesco vitia nick got one like repli june write comment press enter post david lee updat hi cover photo comment like comment share peopl like remov konrad stefan got like repli june remov david lee tbt think ever se deal befor lol like june write comment press enter post david lee edit vip merced benz car deal rev hot deal merced benz slk sport pack msrp monthli leas month mile total pocket cost more like like comment share peopl like write comment press enter post
p131
sg4
(dp132
g6
(lp133
Ventrepreneurship pioneer initi progr epi
p134
aVbusi administr law
p135
asg12
Vspecial market manag technolog field focus busi develo strategi mobil media social media digit market br br gener br profession work experi over year work variou capac sale manag busi develo websit design mobil media lead gener mobil app mobil site social media content curat page creation analyt data commerc softwar hardwar technic assist support content creat photographi videographi canon dslr photo edit adob photoshop lightroom aviari event plan custom servic focu group public speak group peopl public event promot trainer onlin advertis seo sem smm market email market br br market manag br creativ market content curat social media mobil media pr onlin advertis websit market inbound market sem seo market sale br br technolog br year work googl product microsoft product adob product br po mobil platform app mobil websit br social media platform tool like qwaya salesforc hootesuit hubz vocu vertic repsons other br br industri have work have experi br restaur bar hospit br magazin print public br blog br automot dealership bodyshop br profit br educ br event plan br retail store cloth health product br softwar hardwar br photographi br social media br websit design br mobil media br commerc br br specialti skill includ microsoft offic suit access ms project manag softwar openoffic googl app outlook po social media websit twitter blog facebook foursquar tumblr pinterest br br experi se bing yahoo googl br browser firefox chrome safari br os io adroid window br adob photoshop br adob lightroom br window video editor br aviat googl app br market sale plan br busi plan write br busi consult coach
p136
sg14
Vdigit social media pirelli
p137
sg16
(lp138
Vonlin market
p139
aVseo
p140
aVsocial media market
p141
aVdigit market
p142
aVe commerc
p143
aVsocial network
p144
aVsocial media
p145
aVadvertis
p146
aVfacebook
p147
aVmarket strategi
p148
aVblog
p149
aVbusi develo
p150
aVnew busi develo
p151
aVmarket manag
p152
aVstrateg plan
p153
aVsem
p154
aVgoogl analyt
p155
aVsale manag
p156
aVte build
p157
aVweb analyt
p158
aVcompetit analysi
p159
aVbusi strategi
p160
aVproject manag
p161
aVmarket research
p162
aVsmall busi
p163
aVyoutub
p164
aVwebsit develo
p165
aVb2b market
p166
aVaccess
p167
aVbrand develo
p168
aVdigit photographi
p169
aVcontent manag
p170
aVoper manag
p171
aVoutlook
p172
aVgoogl app
p173
aVintegr market
p174
aVmarket plan
p175
aVproduct market
p176
aVcustom relat
p177
aVcreativ problem solv
p178
aVevent manag
p179
aVstrateg consult
p180
aVwebsit build
p181
aVoptim
p182
aVrecruit
p183
aVentrepreneur
p184
aVdesign consult
p185
aVentrepreneuri startup
p186
aVsolut
p187
aVtechnolog manag
p188
asg60
(lp189
Vdigit social media
p190
aVowner market tech consult
p191
aVdigit strategi analyst
p192
aVmobil media coordin
p193
asg84
Vmarket advertis
p194
sg86
(lp195
Vemail leav voicemail googl voic thank
p196
asg93
(lp197
Vadvertis digit market manag pirelli tire
p198
aVdirector market corpor account pirelli tire llc
p199
aVvp commun media relat motorsport pirelli tire north erica
p200
aVmarket director pirelli
p201
aVsenior vice presid pirelli tire north erica
p202
aVpublic relat event manag pirelli tire llc
p203
aVvice presid strateg plan nafta gener manag busi unit moto pirelli
p204
aVevent sponsorship coordin pirelli nafta
p205
aVmarket director product manag dogma debunk data driven busi strategist
p206
aVchief market offic vp race fuel
p207
asg105
(lp208
Vnew technolog
p209
aVinvest
p210
aVsnowboard
p211
aVoutdoor
p212
aVf1 race
p213
aVautomot cultur
p214
aVbusi ventur
p215
aVlearn new skill
p216
aVknowledg
p217
aVphilosophi
p218
aVcook
p219
aVexcers
p220
aVsocial network
p221
aVcreativ art
p222
aVtravel
p223
aVmarket
p224
aVmanag
p225
aVlaw
p226
aVoriganiz behavior
p227
aVstraget plan
p228
aVmore
p229
asg117
(lp230
Vrutger state univers new jersey newark
p231
aVmontclair state univers
p232
assg123
(dp233
g125
(lp234
Vluisodlh jsbykim joeshur thank
p235
aVashburn wish
p236
aVrichard_karch
p237
aViaanyc thank rt
p238
aVashburn howww argh
p239
aVashburn tri hope week
p240
aVgavindonovan lol those peopl will def money worth song will have jetblu play time
p241
aVcanva thank
p242
aVcanva ye didn realiz better luck time thank quick repli
p243
aVcanva thank link access expir messag page
p244
aVkfhua long peopl follow link board one way credit sourc
p245
aVmsweetwood panasonicusa uniquephoto great have setup know some store sold learn more uniqu
p246
aVzthoren mktgoptchat version evolut type tool will give better engag those needl haystack issu
p247
aVzthoren compani combat issu filter valid
p248
aValispagnola tweet your alarm clock
p249
aVadap exactdr ok alreadi regist sure process tutori onlin long ha market
p250
aVmargaret_kor sure
p251
aVjojo_dab yea
p252
aVjojo_dab like facebook talk dont foeget hashtag
p253
aValiciagoglucci work myself grind hustl marketingguy day niceguy night lol use more hashtag instagr
p254
aValiciagoglucci say se bad work social media lol are these day
p255
aValiciagoglucci fb still king twitter simpler quick
p256
aValiciagoglucci hey
p257
aVelectronicsexpo special event
p258
aVashburn nope
p259
aVplasticprint sure promo version fee usual cost
p260
aVkaitlinfitzz all day evrrrrday girl
p261
asg128
Vwork peopl further busi develo digit mobil social local market visit http taevjaka2m
p262
ssa(dp263
g2
Vchafik mazian share page agzah actor director like page like talk like like share peopl like chafik mazian alwassit tv translat www alwassitpress com http www facebook com alwassitpress youtub com like sharechafik mazian alex gibney steve job man machin translat steve job man machin offici trailer like facebook http www facebook com stevejobsmaninthemachin oscar win director alex gibney clear scientolog prison belief pu youtub com like like share peopl like chafik mazian objectif media pre wed photoshoot video scene weimin yuyen pre wed photoshoot video scene youtub com like like share peopl like chafik mazian chang hi profil pictur like like share peopl like chafik mazian translat tv channel like page like talk like like share reda agadikan like chafik mazian share photo edit translat translat like sharechafik mazian homeless drug addict vs homeless father social experi homeless father vs homeless drug addict social experi snapchat cobypersin subscrib http www youtub com user instagr http instagr com cobypersin snapchat cobypersin associ wi youtub com like like share peopl like chafik mazian updat hi cover photo edit like like share peopl like chafik mazian share photo translat translat like like share peopl like chafik mazian translat share like share peopl like share remov latifa baalla rbbi ikhlik chafik dyalnase translat like juli chafik mazian cray __ http bbc supercomput saudi translat saudi supercomput enter list bbc news time supercomput base middl east ha enter rank power planet bbc uk like sharechafik mazian share viral thread video aze kind some peopl are watch later view viral thread upload new video aze kind some peopl are like like share peopl like chafik mazian translat subscrib http goo gl like facebook http goo gl follow twitter http goo gl follow instagr http goo gl youtub com comment like share peopl like remov said asseml grin emoticonse translat like juli remov chafik mazian dyalo nta malk la translat like juli view more repli remov soufian mazian translat like juli view previou repli remov chafik mazian hhhhhhsee translat like juli view more replieschafik mazian updat hi cover photo edit like like share peopl like chafik mazian share photo translat translat like like share peopl like chafik mazian translat share like share peopl like share remov latifa baalla rbbi ikhlik chafik dyalnase translat like juli chafik mazian cray __ http bbc supercomput saudi translat saudi supercomput enter list bbc news time supercomput base middl east ha enter rank power planet bbc uk like sharechafik mazian share viral thread video aze kind some peopl are watch later view viral thread upload new video aze kind some peopl are like like share peopl like chafik mazian translat subscrib http goo gl like facebook http goo gl follow twitter http goo gl follow instagr http goo gl youtub com comment like share peopl like remov said asseml grin emoticonse translat like juli remov chafik mazian dyalo nta malk la translat like juli view more repli remov soufian mazian translat like juli view previou repli remov chafik mazian hhhhhhsee translat like juli view more repli
p264
sg4
(dp265
g6
(lp266
Vinformatiqu gestion
p267
asg12
S''
p268
sg14
Vdigit consult
p269
sg16
(lp270
Ventrepreneurship
p271
aVstart
p272
aVinnov
p273
aVentrepreneuriat
p274
aVproduct develo
p275
aVmarket
p276
aVproject manag
p277
aVbusi develo
p278
aVmanag
p279
aVbusi strategi
p280
aVmysql
p281
aVcss
p282
aVonlin market
p283
aVseo
p284
aVhtml
p285
aVonlin advertis
p286
aVe commerc
p287
asg60
(lp288
sg84
Vinform technolog servic
p289
sg86
(lp290
sg93
(lp291
Vfilm director gener manag objectif media
p292
aVd veloppeur mobilit
p293
aVtudi esdhem
p294
aVrespons data analyst seo chez aliph 618
p295
aVdigit market intern chez ztudium
p296
aVrespons commerci chez agenc web draw
p297
aVstudent nation colleg ireland
p298
aVing nieur etat en etud et velopp informatiqu en recherch activ emploi
p299
aVlook new challeng
p300
aVauthor entrepreneur ceo
p301
asg105
(lp302
Ventrepreneurship
p303
aVstartup
p304
aVnew technolog
p305
aVmarket
p306
aVbrand product develo
p307
asg117
(lp308
Vinstitut libr etud informatiqu et commercial
p309
aVinstitut libr etud informatiqu et commercial
p310
assg123
(dp311
g125
(lp312
sg128
Vdigit consult
p313
ssa(dp314
g2
Vmaaik aart chang profil pictur share peopl like view more comment remov joke strijbi zit achter en zie je foto mooi hoor translat juli remov maaik aart elvira heel leuk translat juli remov maril vergouw leuk moppi translat juli remov janhendrik degier je ziet er toch moe uitse translat juli aart chang profil pictur share peopl like view more comment remov viona nieuwenhui staat je goeho translat april remov gon bernhard echt mooi translat april remov moniqu van den bremer mooie foto mei translat april remov claudia gier jij lijkt steed meer op je moeder maaikese translat april edit aart chang profil pictur share peopl like remov erna meijer wat een leuk fotose translat novemb remov han gier lekker koud zo te zien geniet maar lekkerse translat novemb remov marijn kortekaa wat een leuk meidse translat march aart chang profil pictur share peopl like view more comment remov maaik aart marja er vandaag veel gevallen du gaan weg met een winterwonderlandse translat decemb remov mie pinnemut idd helema dezelfd maaik nog translat decemb remov ferri gier haha du zo ziet kerstvrouw eruit leuk hoor translat decemb remov iri droog cool foto maik decemb aart updat cover photo share peopl like remov marja gier bijzonderse translat remov erna meijer apart novemb
p315
sg4
(dp316
g6
(lp317
Vmarket commun b
p318
aVmarket
p319
asg12
g268
sg14
Vcommun manag kia motor nederland v
p320
sg16
(lp321
Vmarket
p322
aVmarket commun
p323
aVonlin market
p324
aVsocial media
p325
aVevent manag
p326
aVonlin advertis
p327
aVb2b
p328
aVcorpor commun
p329
aVcopywrit
p330
aVmarket strategi
p331
aVproject plan
p332
aVmarket manag
p333
aVemail market
p334
aVdirect market
p335
aVevent base market
p336
aVintern commun
p337
aVpublic relat
p338
asg60
(lp339
sg84
Vautomot
p340
sg86
(lp341
sg93
(lp342
Vmanag pr commun kia motor nederland v
p343
aVdirector market kia motor nederland v
p344
aVmarket rdinat kia motor nederland v
p345
aVmanag director kia motor nederland v
p346
aVpr manag kia motor nederland
p347
aVdigit market rdinat kia motor nederland v
p348
aVmarket coordin kia motor nederland
p349
aVadministr train coordin kia motor netherland
p350
aVperson assist ceo kia motor nederland v
p351
aVdirector sale kia motor retail specialist implement strategist manag advisor
p352
asg105
(lp353
sg117
(lp354
Vsrm
p355
aVsrm
p356
aVhogeschool inholland
p357
aVc
p358
assg123
(dp359
g125
(lp360
Vdit rt thatst life all peopl are your kind crazi
p361
aVpeptalk met grover mashabl grover kid presid motiv need http http
p362
aVmaxwdevri gast
p363
aVmaxwdevri insomnia
p364
aVingmarmeij have fun moppi
p365
aVingmarmeij wow impress
p366
aVmaxwdevri aight
p367
aVingmarmeij lenmb enjoy hoor mannen
p368
aVingmarmeij topper
p369
aVingmarmeij leuk have fun
p370
aVjulieeloveex cuti
p371
aVingmarmeij lief
p372
aVjulieeloveex doen deal gezellig zinin
p373
aVmartarchi congrat du have good time
p374
asg128
Vmarcom kia motor nl photographi fotomaaik mani thing music friend danc idea
p375
ssa(dp376
g2
Vcaitlin townsend chang profil pictur share peopl like caitlin townsend chang profil pictur edit rainbow m glad share neighborhood share peopl like remov leann wilson nice shot june remov paula rene curti your eyebrow ge strong june remov christin hugh beauti june
p377
sg4
(dp378
g6
(lp379
Vhistori
p380
aVearli modern histori scienc
p381
aVhistori
p382
aVliber art scienc
p383
asg12
g268
sg14
Vassoci consult writer cpbell compani
p384
sg16
(lp385
Vmuseum
p386
aVmuseum collect
p387
aVproject manag
p388
aVinterview skill
p389
aVwrite
p390
aVresearch
p391
aVpublic speak
p392
aVraiser edg
p393
aVmimsi xg
p394
aVmuseum tm
p395
aVfinal cut express
p396
aVhistori scienc
p397
aVarchiv
p398
aVeuropean histori
p399
aVteach
p400
aVteach write
p401
aVhistor research
p402
aVpresent
p403
aVguest lectur
p404
aVpeer mentor
p405
aVonlin publish
p406
aVcreativ write
p407
aVmuseum educ
p408
aVarchiv preserv
p409
aVmicrosoft word
p410
aVpowerpoint
p411
aVhtml
p412
aVweb content
p413
aVtelephon interview
p414
aVhistori
p415
aVgrant write
p416
aVnonprofit
p417
aVcommun outreach
p418
aVedit
p419
asg60
(lp420
Vassoci consult writer
p421
aVcuratori research consult natur histori
p422
aVwrite research assist develo
p423
aVchair art citizenship graduat student leadership committe
p424
aVgraduat student instructor teach mentor
p425
aVart citizenship summer fellow learn interpret
p426
aVwriter research
p427
aVhistor present
p428
asg84
Vmuseum institut
p429
sg86
(lp430
Vhelp nonprofit organ tell stori connect donor combin strateg analyt creativ write
p431
asg93
(lp432
Vassoci consult cpbell compani
p433
aVassoci consult cpbell compani
p434
aVseason profession skill design progr support emerg leader social innov
p435
aVpresid ceo collin group divis cpbell compani
p436
aVvice presid profit consult cpbell compani
p437
aVvice presid profit consult cpbell compani
p438
aVconsult fundrais philanthropi cpbell
p439
aVpropos specialist cpbell compani
p440
aVassoci consult writer cpbell compani
p441
aVassoci consult cpbell compani
p442
asg105
(lp443
Vprofit sector
p444
aVenvironment wildlif conserv
p445
aVscienc fiction
p446
asg117
(lp447
Vunivers michigan
p448
aVunivers cbridg
p449
aVmoravian colleg
p450
aVbuck counti commun colleg
p451
assg123
(dp452
g125
(lp453
Vkshpatel joescia meagelliott m happi meet week
p454
asg128
g268
ssa(dp455
g2
Vkati wink updat cover photo share peopl like view more comment remov clare archer think flower power uu juli remov clare archer flower power juli remov karen wink kati darl pictur love iggi juli remov celia dunn love photo look good kati juli kati wink updat cover photo share peopl like view more comment remov carissa kosta think xxoo june remov emili kastrul clark send love your way xoxo june remov ralph wettstein yup june remov christin hope juli kati wink updat cover photo share peopl like kati wink chang profil pictur share peopl like kati wink updat cover photo share peopl like remov michael lee fair attent aux renard translat februari wink updat cover photo share peopl like kati wink chang profil pictur share peopl like kati wink updat cover photo share peopl like remov michael lee fair attent aux renard translat februari
p456
sg4
(dp457
g6
(lp458
Venglish erican languag literatur
p459
aVanglo irish literatur
p460
asg12
Venthusiast leader learner br br posit manag peopl event project br br experienc editor writer optim
p461
sg14
Vb2b content market manag twitter
p462
sg16
(lp463
Vcopywrit
p464
aVsem
p465
aVseo
p466
aVleadership
p467
aVedit
p468
aVcontent develo
p469
aVonlin advertis
p470
aVppc
p471
aVcopi edit
p472
aVdigit market
p473
aVblog
p474
aVpeopl skill
p475
aVdigit media
p476
aVproject manag
p477
aVpublish
p478
aVmusic industri
p479
aVreport write
p480
aVmicrosoft offic
p481
aVonlin market
p482
aVorgan
p483
aVcontent market
p484
aVseo copywrit
p485
aVcontent manag
p486
aVmusic
p487
aVnew media
p488
aVcommun
p489
aVdiplomaci
p490
aVcreativ
p491
aVperform manag
p492
aVpresent
p493
aVwork ethic
p494
aVflexibl
p495
aVlead chang
p496
aVcultur manag
p497
aVlanguag
p498
aVoper budget
p499
aVcontractu agreement
p500
asg60
(lp501
Vb2b content market manag
p502
aVsenior content writer senior strategist social content
p503
aVhead progrm educ
p504
aVsearch qualiti manag europ
p505
aVwriter editor
p506
aVmusic french spanish teacher
p507
aVeditori assist
p508
aVmusic teacher choir director
p509
asg84
Vmarket advertis
p510
sg86
(lp511
Vwrite stori power twitter advertis platform
p512
aVcreat long short web content engag client best prospect brand work encompass all aspect content develo initi content strategi creativ concept search engin optim write edit publish commun manag
p513
aVwork includ write humor articl thespark com consult graduat school person statement essayedg com edit market materi capit group contribut articl irish crime auto woman magazin review literari fiction sunday independ newspap ireland
p514
aVprovid weekli lesson all grade level elementari school
p515
aVrole includ write jacket catalog copi well coordin commun ong author editor product staff
p516
aVone year internship entail design teach music curriculum grade level
p517
asg93
(lp518
Vsenior digit market manag twitter
p519
aVmarket manag twitter mentor judg eircom spider
p520
aVsmb market manag twitter
p521
aVagenc market manag emea twitter
p522
aVsale director emea twitter
p523
aVvice presid twitter
p524
aVsenior account manag twitter
p525
aVdirector busi develo emea twitter
p526
aVaccount manag twitter agenc te
p527
aVsenior account manag media entertain twitter
p528
asg105
(lp529
Vmusic
p530
aVtravel
p531
aVsocial media
p532
aVlanguag
p533
aVrun
p534
asg117
(lp535
Vharvard univers
p536
aVtriniti colleg dublin
p537
aVwhitefish bay high school
p538
assg123
(dp539
g125
(lp540
Vstephen_odwy wise lucki man love priorjenn xx
p541
aVlikewis good tire veri
p542
aVhonestli nope didn til just wa se tommi martin are man
p543
aVcrudden emmahopkin gordonmacmillan bobwal badger magic
p544
aVflynnco yep portabl cheeki fave thank congrat newlocal
p545
aVmcsnugz dn just more aze lurv
p546
aVknittingsquid are aze thank overwhelm lovedup
p547
aVbarrycollin karend_g pennycoughlan twitterlitt ha cool philip are definit one cool cat give mum hug xx
p548
aVhooray
p549
aVbelicosebarch yeah work
p550
aVtweet_padra did hear la bba parti friday siiiiigh
p551
aVtweet_padra blush sorri nois
p552
aVknittingsquid miss hope are have aze night x
p553
aVlauriekelli hooray hope violethighlight are have alllll fun bagel place tinetweet mention ace xx
p554
aVtinetweet lauriekelli love place littl dive tasti mojito xx
p555
aVknittingsquid yeah ricscotti ha actual eaten
p556
aVform_architect yep d say quit time http xc44yckaq4
p557
aVbakerdavina good start ll send some favourit account follow xx
p558
aVform_architect sure where
p559
aVpennycoughlan kevincassidi juliedil cilday think cullennr made dre come true
p560
aVmach artizanfood kevincassidi were right here take nopartit
p561
aVkevincassidi karend_g cilday talinterzakyan ye just tweet madrid miss guy soon xx
p562
aVtweet_padra cathbrodigan wait chair
p563
aVleulah thank laura belicosebarch look forward catch
p564
aVcathbrodigan happi move day feet enjoy tweet_padra hood like hol sandinyourbit sweet dre
p565
aVpocketstev congrat thank good luck there steve
p566
aVurbanpicnicirl thank cupcak class
p567
aVjordanmcd urbanpicnicirl twitterdublin yep wa one record book nom
p568
aVlauriekelli eeee wait hear your adventur
p569
aVdjender rel balmi smash year thank oshkosh
p570
aVtalinterzakyan kevincassidi karend_g chp prove stressbal juggl daili increas product gt
p571
aVkevincassidi talinterzakyan karend_g meant juggl email
p572
aVsandyritschk late hellz yeah pb where belong pbj pbb cooki fudg stay away frm pretzel thank
p573
aVkdub got thank friendli beardi driver mani help garda big thank rt kept hope
p574
aVform_architect happi happi blanaidmurphi jr
p575
aVthank rt
p576
aVesbnetwork got cden villa coupl minut ago thank
p577
aVabigilman wa contempl cupcak version wonder toomuch hope guy are have fab mke nye xxx
p578
aVabigilman just made browni cooki today look recip d sent your repli your boyfriend love
p579
aVbelicosebarch thank rt beauti cath_kidston wallet lost lot compliment rt
p580
aVlimmster thank thank rt darren bell yep day wallet were golden sigh
p581
aVkevincassidi crimin mind set trap beauti wrap
p582
aVhaimvat lav have sababa afternoon fella
p583
aVlav haimvat all say news sababa
p584
aVlav haimvat twitterdublin yalla say some more sababa stat
p585
aVhaimvat lav have ve done research http px1fduratk
p586
aVavanhizzl wait purs gave week http ibm7iexcjz
p587
aVcatherinebenet eddierocketsirl mikeofjesu ll take onion ring thank
p588
aVjordanmcd breakfast tweetfeetdub chpion thank urbanpicnicirl berri
p589
aVerinebert miss made happi made miss more x
p590
aVacatisacat rightbackatcha
p591
aVshannondcoco sorri miss yep need catch soon hope superfun lunch x
p592
aVshannondcoco oh cool time ll volunt twitterforgood all morn x
p593
aVknittingsquid thought mom weetabix did have breakfast hotel fun cereal look like soap
p594
aVknittingsquid atcha
p595
aVknittingsquid chocol chip weetabix mini morn best decis ever made
p596
aVsecuritygeorg happi tuesday twitterdublin
p597
aVclementhalloo malik ll franc night wompwomp
p598
aVcrudden knittingsquid ok guy ne wip moment m lean golli bob crudsey
p599
aVknittingsquid hooray hope got some vita coco latt parti
p600
aVpennycoughlan lauriekelli bece awkward flynnco left cakeheaven synchronoss hope twitterdublin tweep check
p601
aVlikewiseimsur yep job make kiosk donut connel st talk sport tweet say hallo
p602
aVglad were spare cano tragedi day
p603
aValoweha wa all ok til realis have stop pretend just over there chocol coat brazil nut
p604
aVeoindm nice wish work close borza know undo
p605
aVeoindm darttweet
p606
aVskey ve alreadi seen sunris morn win
p607
aVaerlingu thank ala wayn nexttim have give shout henri realli friendli help servic
p608
aVform_architect wayn have sung lullabi quell turbul settl junior
p609
aVkgalexandra sing think your number case dep st ann are music network
p610
aVerinebert sure mayb even some skype adventur befor live your hous bigtim
p611
aVerinebert smashhawk oh blaaaaast just repli draft wififail belatedli thank erin miss excit meet ashley
p612
aVpatrickwink wouldn se dad fannypack
p613
aVsmashhawk erinebert cool thank
p614
aVjuliedil think wa fab x
p615
aVtomartha wow did take hoodieselfi after saw timestpsh hmf have good flight
p616
aVanda_eggert wow thought wa dre wi cranberri chees wow
p617
aVtomfoxi ugh sorri tom
p618
aVknittingsquid thought electr light bulb salon were just there look luxuri hmf
p619
aVkgalexandra well thank happi dublin work twitter are
p620
aVpennycoughlan ohh_deer ve naiv unzip case gasp
p621
aVsandyritschk yay ll thanksgiv fella say hello http bqpxctz4sv
p622
aVsandyritschk miss pal xo
p623
aVliset wow fix thank
p624
aVliset either
p625
aVliset confid either land birth ancestr home will victori usabel
p626
aVtasty_smich wisconsin thing those are favourit thing bigtim xx
p627
aVknittingsquid there are still ticket tomorrow night work dublin offic stay mine
p628
aVsimonbr liset emiliano ricscotti davidgarsia mmcelvaney stwisemedia add worldcup ll everi time te score
p629
aVhumbersidefir well play
p630
aVbebhinnmeadhbh flynnco orla_aoif catherinebenet aoifecaulfield facoo m london tweetfeet japan star yukonagano
p631
aVjaneiow ye mention gin goe think sundri tomato make list
p632
aVlauriekelli thank ladi sorri cut hol short girl need eat
p633
aVsothisisliz oh cool yep sang here year love shellard say hello
p634
aVbachsing believ will thank enjoy x
p635
aVflynnco orla_aoif aoifecaulfield mani happi return
p636
aVflynnco oh hai
p637
aVj_ayto twitteruk alextrickett tomfoxi maxmcq thank josh carrythemhom inspir cpaign
p638
aVtraviaink wrote guy mean everi word
p639
aVform_architect visit jartfactori today artist ne gr inn tynan http dtjrxisvwx
p640
aVsimonbroekema lauriekelli heart your shirt were notimpress far away were twikinglov
p641
aVwendytapia oh noe thought were meant look seriou
p642
aVsimonbroekema lauriekelli went well over assess use your clever hashtag
p643
aVsimonbroekema lauriekelli were give eye break look sunlight http 212kks4xfi
p644
aVsimonbroekema lauriekelli isn book club meet discuss your shirt http utvmfm2xc2
p645
aVsimonbroekema cedricbrun atbart davidgarsia lauriekelli flynnco liset whi are make wait
p646
aVflynnco lauriekelli mmcelvaney ok atbart simonbroekema liset davidgarsia cedricbrun are raidon
p647
aVtweetfeetdub run better selfi http
p648
aVkdub cc love hatdublin callyyoudel x
p649
aVform_architect clean over year yeah just onc twice late quit anytim want gulp
p650
aVwish traviaink stalskysmith were way blindpigdublin right speakeasysist
p651
aVkdub film kevincassidi introduc lauriekelli
p652
aVshannondcoco are visionari
p653
aVshannondcoco jello goldfishsmil fresh cden street close newdublinvoic rehears
p654
aVtomfoxi oh noe
p655
aVifi_dub thank ifi one favourit place univers mayb round yep m
p656
aVlav ifi_dub rhadublin wow mothership promenad sandycov one favourit
p657
aVlav ifi_dub stump d love know
p658
aVvisitdublin wow thank million pl follow shoot gonna call ghost bu tour yay
p659
aVtweetfeetdub m
p660
aVorla_aoif thank shorten road chpionhug
p661
aVtasty_smich someday forev friend smi are wonderfil tastysmich rock awesom ya hey xx
p662
aVesbfeisceoil hello hello thank over moon especi sing fei newdublinvoic x
p663
aVjuliedil steal leav coffe ring peopl stolen stuff thrill evid speak itself
p664
aVmmcelvaney michaelc there
p665
aVgordonmacmillan your convict share photo singl tweet quit compel m
p666
aVgordonmacmillan milki teabag make uncomfort realli necessari
p667
aVvisitdublin custom hous
p668
aVdjender twitterdublin thank look forward good talk tip tweet drink alright
p669
aVsandyritschk still wait flower
p670
aVsandyritschk swan wa ask prolli look fight jerk
p671
aVkilianjcarrol oh fab glad were there hope enjoy
p672
aVdaithio_r oh noe
p673
aVdaithio_r druidtheatr dubtheatrefest abbeytheatr nice hold
p674
aVadashek love baytweep
p675
aVorla_aoif oh noe feel better soon kitfairi
p676
aVconorcflynn tweetfeetdub jordanmcd look crazi crazi fast
p677
aVconorcflynn tweetfeetdub jordanmcd just fair
p678
aVtweetfeetdub conorcflynn proud have earn wing today thank cap jordanmcd tweetfeet temat http plqesruuaa
p679
aVform_architect lot
p680
aVegbunt fallonandbyrn hatdublin danielnuzum nah think men lent
p681
aVcrumlinfuel pleasur thank all great tweet
p682
aVorla_aoif awwwww tweetfeetbuddi forev
p683
aVvanwyla have tonight are hall
p684
aVvanwyla time gadget
p685
aVthere definit onli one mari russel xo
p686
aVsimonbroekema conorcflynn atbart cedricbrun davidgarsia mmcelvaney lad ve lost twike princess where lauriekelli
p687
aVsimonbroekema have fingerspitzengef hl right neighbour simon have fingerspitzengef hl right
p688
aVorla_aoif electricruni tweetfeetdub rock fairi girl want those wing thank xxoo
p689
aVgillianmobrien recommend best craic ever
p690
aVbebhinnmeadhbh daveegan just all clear one http rgo0jlwzw
p691
aVbebhinnmeadhbh daveegan ve still onli look pic myself drown those eye
p692
aVbebhinnmeadhbh daveegan haha ha happyhappi mood tinder
p693
aVsylviehil thank sylvi yep m dig shelf alright
p694
aVorla_moloney aw thank orla m delight home pint soon
p695
aVeddiewino fli start
p696
aVform_architect just borrow pictur glad look convinc
p697
aVcjhope will d recommend tweet ani scene perspect are work thelettersmovi today
p698
aVcjhope newdublinvoic windmilllanerec look forward hear all thelettersmovi septemb
p699
aVbachsing beauti concert thank http hgjedx3f8b
p700
aVform_architect m sure kid never tune
p701
aVform_architect hope there ginger specialist duti
p702
aVform_architect northsid notjudg
p703
aVsandyritschk liffey cargo morrisondublin thought accept challeng won abl think all
p704
aVavanhizzl infineight yesno
p705
aVform_architect there sass pud
p706
aVniallkinsella carlowchoralsoc carolannmckenna thank great night loveliest servic
p707
aVgillianmobrien say rothstein man all yell scre btw
p708
aVgillianmobrien wowser well doesn quit fit book ll have subject your one
p709
aVbartsieswerda lauriekelli conorcflynn davidgarsia simonbroekema cedricbrun clearli vikabl sure blond hair trump horn
p710
aVbartsieswerda conorcflynn davidgarsia simonbroekema cedricbrun think lauriekelli ha great twike potenti
p711
aVknittingsquid pat_charlton olympiatheatr just need scooter there style wishlist
p712
aVsimonbroekema conorcflynn davidgarsia cedricbrun bartsieswerda nah ha all sort vi ing hi affect twike
p713
aVknittingsquid pat_charlton woot just made eel plan olympiatheatr june
p714
aVsimonbroekema davidgarsia cedricbrun bartsieswerda launch gum raid michaelc desk vikingfreshbreath
p715
aVconorcflynn simonbroekema davidgarsia cedricbrun bartsieswerda did misspel david garsia ne did conquer david garcia
p716
aVdavidgarsia simonbroekema cedricbrun bartsieswerda plan raid failur plan raid plan fail raid raidfail
p717
aVdavidgarsia simonbroekema cedricbrun bartsieswerda hm m conquer right advic
p718
aVsimonbroekema cedricbrun davidgarsia bartsieswerda your battl axe weak weak vikingfriday
p719
aVshannondcoco like elli island worth wait godspe
p720
aValoweha clodagh_ob follow expl veri close http wxr5q3fjp
p721
aVconorcflynn lovindublin dessert all think bunsendublin burger fix
p722
aVmalik thank love
p723
aValoweha cathalmelinn danfoley respect
p724
aValoweha cathalmelinn danfoley excel compani despit all bagg
p725
aVsandyritschk yep x
p726
aVtraviaink nice best habit goin
p727
aVsandyritschk all accord plan
p728
aVmrspatrickwink have absolut faith
p729
aVorla_aoif thank ll dress larri time
p730
aVhave kid never stop ht mrspatrickwink patrickwink
p731
aVdjender thank yep think kiddo chart
p732
aVcathklepp ahhh dublin soul swoon ve inspir start unpack book box
p733
aVerinebert happi birthday sweetheart xo
p734
aVsandyritschk one ll gate are open sun http qwzwvimwva
p735
aVsandyritschk aannnaaaaaa anda_eggert chees juic ftw
p736
aVniallh daveshaw cheer just did hour worth work while listen onc dibbyeffect
p737
aVpia_o m
p738
aVbrenstrong except mr ispi quillinbox
p739
aVbrenstrong comment
p740
asg128
Vse kati wink won tri counti danc
p741
ssa(dp742
g2
Vmandi schaniel updat cover photo share peopl like mandi schaniel chang profil pictur share peopl like remov andilen teran congrat hr remov mandi schaniel thank hr remov jessica agreliu aw hr remov crystal beckman god bless are aze beauti cousin hr remov mandi schaniel en are bless hrsmandi schaniel june pandora ha talk memori love essenti collect savesav contour share lynn smithrud like remov mandi schaniel lynn smithrud josh beckman smile emoticon june view more repli remov mandi schaniel hahaha yah probabl good idea smile emoticon june mandi schaniel june pandora ha talk memori love essenti collect savesav contour share lynn smithrud like remov mandi schaniel lynn smithrud josh beckman smile emoticon june view more repli remov mandi schaniel hahaha yah probabl good idea smile emoticon june
p743
sg4
(dp744
g6
(lp745
Vcommun
p746
asg12
Vjob advertis veteran focu provid valu excel account manag optim success built te account manag manag support optim custom all product mani differ key perform indic
p747
sg14
Vvp custom success ziprecruit
p748
sg16
(lp749
Vaccount manag
p750
aVbusi develo
p751
aVmarket
p752
aVonlin advertis
p753
aVstrategi
p754
aVsale
p755
aVlead gener
p756
aVonlin market
p757
aVrecruit
p758
aVmanag
p759
aVsocial media
p760
aVleadership
p761
aVadvertis
p762
aVstrateg partnership
p763
aVsocial media market
p764
aVcustom servic
p765
aVemail market
p766
aVsalesforc com
p767
aVppc
p768
aVnew busi develo
p769
aVdigit market
p770
aVsocial network
p771
aVcompetit analysi
p772
aVseo
p773
aVinterview
p774
aVtrain
p775
aVb2b market
p776
aVsem
p777
aVcrm
p778
aVstart
p779
aVdigit media
p780
aVsell
p781
aVe commerc
p782
aVedit
p783
aVsale manag
p784
aVb2b
p785
aVproduct market
p786
aVdigit strategi
p787
aVcold call
p788
aVentrepreneurship
p789
aVmobil market
p790
aVbusi strategi
p791
aVsocial market
p792
aVsale present
p793
aVrecruit advertis
p794
aVanalyt
p795
aVweb market
p796
aVadvertis sale
p797
aVcustom acquisit
p798
aVnegoti
p799
asg60
(lp800
sg84
Vonlin media
p801
sg86
(lp802
sg93
(lp803
Vcofound ceo ziprecruit com
p804
aVvp ziprecruit
p805
aVvice presid strategi busi develo ziprecruit
p806
aVwant day free trial ziprecruit just ask
p807
aVchief market offic ziprecruit post job board
p808
aVceo founder growth hacker vitalfew
p809
aVfounder ziprecruit
p810
aVvice presid monet analyt ziprecruit
p811
aVchief product offic ziprecruit
p812
aVfounder cto ziprecruit
p813
asg105
(lp814
Vwrite
p815
aVread
p816
aVlearn
p817
aVhelp other
p818
asg117
(lp819
Vcalifornia state univers fullerton
p820
aVcalifornia baptist univers
p821
assg123
(dp822
g125
(lp823
Vthestreet roycohen link broken fyi curiou your thought are think done right benefici
p824
aVkendralinstrom congrat te green p
p825
aVboomerang ye io mobil web version more user friendli
p826
aVcluman penn_stat veri more person suppos
p827
aVchelseakrost meghanmbiro recommend mentor mentor oh did mention ani all mentor ye
p828
aVbriasobooji agre
p829
aVchelseakrost meghanmbiro opportun growth make impact heard have say
p830
aVwebinara ziprecruit thank rt
p831
aVuberconfer congrat
p832
aVcouldn agre more one thing seek construct critic argu latter
p833
aVjobboarddoctor fair m technic gen identifi gener observ mostli true
p834
aVjobboarddoctor take look let know think http 6xmcbpcvpo
p835
aVchrisrussel ha perfect
p836
aVwish help job site are all s canada best luck your search
p837
aVadgoorooinsight absolut thought use imag photo repres cultur locat job vs product
p838
aVjobboarddoctor veri care
p839
aVjobboarddoctor ye well better zipper
p840
aVjosephputn pleasur great stuff
p841
aVzrmandi make custom whoop
p842
aVsharingiscar rt harleena organ priorit deleg http contemporaryva
p843
aVye rt inc step craft your cultur susanrsalgado hospitalityq http hdg0kzb51r
p844
aVandreabrems thank reach appli http sure answer interview question ll lookout
p845
aVwatsoncollard ha there
p846
aVdavicon good point have struggl definit passiv candid
p847
aVdavicon tell other headhunt ha access passiv candid
p848
aVdavidsickmil are hold
p849
aVjasoncblai rais hand
p850
aVpgootz thank shout
p851
aVjoelcheesman aww still like internship great talk btw snazzi present
p852
aVjoestubblebin gerrycrispin kwheeler mattcharney joelcheesman awesom
p853
aVsure thing sent invit request
p854
aVrblake marg sound good sinc holiday mean right
p855
aVjuliewhiteaz fantast news
p856
aVecowrit wdhick thank twitter love
p857
aVginzetr smart move coffe
p858
aVundercoverrec like suggest use lot fyi couldn beme app store
p859
aVcubanalaf right there ya miss ge play kid happi won pack
p860
aVonthemarkmarket lol funni true
p861
aVwardpoulo badlipread love
p862
aVfindcr awesom sell kid sock troubl
p863
aVcornonthejob send folk repli sale superstar
p864
aVsalesgravi love
p865
aVsmartrecruit veri idea
p866
aVbradbennett think all use these remind time time
p867
aVascetweet wow love
p868
aVhahaha ye veri grate mute great webinar realli enjoy
p869
aVhahaha se here thank good diego toddler wa tri talk darren
p870
aVbeautyjobshop thank appreci
p871
aVone favorit quot
p872
aVcareer haha great catchi titl
p873
aVanshulday thank share
p874
aVabrekka
p875
aVsnagajob anytim will iaew ere san diego week
p876
asg128
Vvp custom success ziprecruit proud wife ma mandyschaniel blogger motivatingmandi
p877
ssa(dp878
g2
Vrosi pringl chang profil pictur comment like share peopl like view more comment remov alyc turner wonder rosi love your smile like juli remov elisabeth pringl love pictur love subject like juli remov susan turner pringl gosh shine like juli remov ceridwen taliesin beauti are like juli rosi pringl chang profil pictur edit made rainbow collag app like like share peopl like rosi pringl latest thought diy limit curs diy m design m develop m maker sort take great pride work refin everi small best practic meticul craftsmanship standard perfect design these word still give thrill joy everi time rosiepringl com comment like share peopl like remov marleni dubon true like june rosi pringl updat cover photo comment like share peopl like remov murphi tang are these vintag like june rosi pringl latest thought diy limit curs diy m design m develop m maker sort take great pride work refin everi small best practic meticul craftsmanship standard perfect design these word still give thrill joy everi time think everi time rosiepringl com comment like share peopl like remov marleni dubon true like june rosi pringl updat cover photo comment like share peopl like remov murphi tang are these vintag like june
p879
sg4
(dp880
g6
(lp881
Vgraphic design
p882
asg12
Vspecialti interact design develo focu respons adapt mobil optim design user experi research brand ident design
p883
sg14
Vfounder junglemethod
p884
sg16
(lp885
Vuser experi
p886
aVweb design
p887
aVinteract design
p888
aVuser interfac design
p889
aVtypographi
p890
aVgraphic design
p891
aVbrand ident
p892
aVadob creativ suit
p893
aVindesign
p894
aVillustr
p895
aVphotoshop
p896
aVweb develo
p897
aVvisual design
p898
aVhtml
p899
aVcss
p900
aVlayout
p901
aVcreativ direct
p902
aVjavascript
p903
aVillustr
p904
aVrespons design
p905
aVmobil design
p906
aVlogo design
p907
aVconcept develo
p908
aVexperi design
p909
aVjqueri
p910
aVwordpress
p911
aVcorpor ident
p912
aVinform architectur
p913
aVuser interfac
p914
aVcontent manag
p915
aVuser research
p916
aVdigit illustr
p917
aVsocial media
p918
aVbrand develo
p919
aVadapt design
p920
aVicon design
p921
aVend engin
p922
aVend code
p923
aVend design
p924
aVcontent strategi
p925
aVtest
p926
aVusabl test
p927
aVsketch
p928
aVinvis
p929
aVprototyp
p930
asg60
(lp931
sg84
Vdesign
p932
sg86
(lp933
Vcreat desktop mobil optim pixel perfect visual design varieti brand includ unilev breyer st ive popsicl aig
p934
aVcreat uniqu brand web print experi ground strateg research base user need wirefr visual design web develo client accentur simon foundat thompson media group unfcu
p935
aVoffici behanc repres pratt institut undergradu progr
p936
aVdigit brand includ ident design websit design social media implement variou other design project
p937
asg93
(lp938
Vfounder junglemethod
p939
aVux interact design freelanc
p940
aVcreativ lead dnainfo new media news llc
p941
aVceo viagem inc
p942
aVfounder ceo digit umi
p943
aVsenior digit content design
p944
aVgraphic design swarm agenc
p945
aVuser experi ui design
p946
aVproduct manag healthi essenti johnson johnson digit center excel
p947
aVlead ui product director acd art direct digit brand consult
p948
asg105
(lp949
Vcalligraphi
p950
aVpsycholog
p951
aVemerg technolog
p952
aVphilosophi
p953
aVgraphic design
p954
aVtypographi
p955
aVdigit photographi
p956
aVtravel
p957
aVmusic
p958
asg117
(lp959
Vpratt institut
p960
assg123
(dp961
g125
(lp962
Vcabin_jim aww shuck
p963
aVkimmiemr wersm dubonmg check
p964
aVjackyalcin cool site
p965
aVcabin_jim junglemethod thank
p966
aVhunieco content design http design tip ge design
p967
aVwalkaboutmobi like all travel shoe advic never know proper ount shoe bring
p968
aVyayconni invisionapp yaaaasss yusssss woop woop need
p969
aVgetbeagl ha invit got lot propos write rosi junglemethod com
p970
aVtriketora like art direct date app welcom join
p971
aVjackyalcin sad true have pen paper option doubt kid
p972
aVjackyalcin just talk make websit fanci talk mom teach wa age
p973
aVjackyalcin yeah saddest leav full time gig wa give slackhq more
p974
aVinc mariaaspan mean odor problem whi armpit disrupt deodor industri more profit one douch
p975
aVokaytyp say licens plate shouldn have made http qrcgrtatpt
p976
aVchelleycr congrat your line
p977
aVmonteiro use dark magic your book win over client will design feel excit
p978
aVfemmfairygodmom true choic have make
p979
aVfemmfairygodmom d have break wax seal
p980
aVpretti good baromet huffpostwomen cook boyfriend toxic relationship wa http
p981
aVfood thought ranaji independ scotland adopt bitcoin currenc futureofmoney scotland bitcoin btc
p982
aVconor_draw yeah probabl gonna help time mayb time
p983
aVconor_draw app realli handi gener contract call shake http 3wxtyszhsx
p984
aVconor_draw did have contract
p985
aVmashabl pretti stress whole launch traffic highest your site applewatch
p986
aVmpventura rachelholliday hearten news good journal facebook take step click bait articl http vfskuij1oc
p987
aVnytmag ve discov design true intent user goodwil all cost
p988
aVfastcompani these are best tech compani intern accord intern http prattinstitut
p989
aVsad inhibit progress gizmodo http http
p990
aVsarasotabutch m either medium big space grey
p991
aVsarasotabutch onli store chip cloud
p992
aVga quit love realli fill gap ve magpi past set strong foundat
p993
aVfemmfairygodmom hope enjoy your car ride
p994
asg128
Vinteract design creativ develop societi observ brooklyn second gener woman tech founder junglemethod
p995
ssa(dp996
g2
Vgreg godden chang hi profil pictur share peopl like remov jane siedlyk pretti handsom lil fella juli greg godden chang hi profil pictur share peopl like remov greg godden thuglif juli greg godden chang hi profil pictur share peopl like remov jane siedlyk great pictur happi father day june greg godden left job mindgeeksoci media specialist montreal quebec sharegreg godden start work capitmediacont manag specialist montreal quebec sharegreg godden left job mindgeeksoci media specialist montreal quebec sharegreg godden start work capitmediacont manag specialist montreal quebec share
p997
sg4
(dp998
g6
(lp999
Vweb develo
p1000
asg12
Vcreativ thinker tech geek internet junki passion write ging fish br br digit market social media veteran more year experi work some traffick websit world br br adept manag social media account all major network experienc social media analyt platform hootsuit tweetdeck buffer sprout googl analyt br br extens pr copywrit experi includ ghost write pr statement interview press releas blog post social media updat market email newslett land page seo copi br br strong knowledg html basic knowledg css basic knowledg seo elementari knowledg php skill implement custom wordpress site br br well vers use standard offic softwar like microsoft word excel outlook adob photoshop adob dreweav abil type more
p1001
sg14
Vcontent manag specialist
p1002
sg16
(lp1003
Vblog
p1004
aVsocial media market
p1005
aVseo
p1006
aVgoogl analyt
p1007
aVsocial media
p1008
aVmarket
p1009
aVcopywrit
p1010
aVwordpress
p1011
aVfacebook
p1012
aVdigit market
p1013
aVonlin market
p1014
aVpublic relat
p1015
aVmedia relat
p1016
aVweb market
p1017
aVnewslett
p1018
aVsocial network
p1019
aVhtml
p1020
aVhootsuit
p1021
aVjira
p1022
aVcustom servic
p1023
aVcm
p1024
aVtwitter
p1025
aVtumblr
p1026
aVkayako
p1027
aVaffili market
p1028
aVphotographi
p1029
aVcss
p1030
aVphotoshop
p1031
aVpr
p1032
aVmicrosoft excel
p1033
aVsocial bookmark
p1034
aVreddit
p1035
aVpinterest
p1036
aVbrand manag
p1037
aVdigit media
p1038
aVinstagr
p1039
aVcustom support
p1040
aVuservoic
p1041
aVdreweav
p1042
aVqa
p1043
aVweb analyt
p1044
aVwrite
p1045
aVweb develo
p1046
asg60
(lp1047
sg84
Ventertain
p1048
sg86
(lp1049
Vrespons promot project multi award win independ short film centigrad liberti wine merchant tast bc event effort promot these event result coverag sever local tv news network breakfast all major local newspap daili paper onlin sever local film focus blog promot effort includ direct phone email pitch local onlin media outlet draft distribut numer press releas
p1050
asg93
(lp1051
Vdigit content analyt seo specialist
p1052
aVjunior product manag capitmedia com
p1053
aVaffili manag commiss bz
p1054
aVtalent acquisit manag hootsuit derekisley hootsuitelif
p1055
aVhead product develo bodog global sportsbook
p1056
aVfounder bodog brand calvinayr com
p1057
aVmanag casino product player develo
p1058
aVcustom centric problem solver experienc manag strengthen long term busi relationship
p1059
aVcoordinador seguro comex en bice corredor seguro ltda
p1060
aVestudiant en universidad veracruzana
p1061
asg105
(lp1062
Vsocial media
p1063
aVmarket
p1064
aVwrite
p1065
aVblog
p1066
aVweb develo
p1067
aVphotographi
p1068
aVcook
p1069
aVbake
p1070
aVfish
p1071
aVvideo ge
p1072
aVging
p1073
aVtechnolog
p1074
asg117
(lp1075
Vcdi colleg
p1076
assg123
(dp1077
g125
(lp1078
Vcullenbunn bad ass
p1079
aVcanuckbassin redjoepa bigbasschalleng thank buddi
p1080
aVlakeerieladi bassinbiologist norfolktour norfolkcountyca lpbaa respect mean sarcast right p
p1081
aVbeauti
p1082
aVlimeybasstard lews_fish look pretti stcroixrod
p1083
aVlimeybasstard love win one ha best giveaway
p1084
aVbassinbiologist breathingmem captain_spear thank jason
p1085
aVlimeybasstard mgaryhanson georgekoufi christiangervai thank dave
p1086
aVcaranstev theladyphantom anns_lif thnx steve
p1087
aVcanuckbassin redjoepa bigbasschalleng thnx buddi
p1088
aVfroggindirti gotta love kid never expect
p1089
aVgunslingermoor canuckbassin lews_fish good lookin reel like cast reel ll great
p1090
aVbassinbiologist hiltonbass snapdhilton wish live closer
p1091
aVhearn_stev froggindirti melvinsmitson gpowellfish fishingpittman beauti
p1092
aVbass_pro_shop tacklewarehous finger cross hope there time
p1093
aVfroggindirti your stop better hospit wrong p
p1094
aVfroggindirti jeff
p1095
aVlunkerhuntertom canuckbassin thnx
p1096
aVlunkerhuntertom canuckbassin mike
p1097
aVlimeybasstard stixnstonesinc hearn_stev caranstev flyfishingsimpl hat_trck_swayz towerrigg ty dave
p1098
aVcanuckbassin redjoepa bigbasschalleng agentsofangl lunkerhuntertom lunkerhunterjay thebassassin ty man
p1099
aVgreat idea ve look like
p1100
aVcatch_more_fish delpdiesel froggindirti well look like m corner store ice cre thnx
p1101
aVfroggindirti there more metal reason price fine home furnish
p1102
aVbassinbiologist irontexa christiangervai solomonrdavid livnthestr crawlieswithcri sherrilojz scheerss ty jason
p1103
aVhearn_stev left left left right left
p1104
aVfishermansbox gotta wast preciou fish time hunt gear
p1105
aVlimeybasstard fatgirlsfish fhdecal catch_more_fish bagwellfish mgaryhanson christiangervai gracieloucart thnx
p1106
aVfroggindirti catch_more_fish yourfishingfix wow did rod hold carp lol have blast
p1107
aVtehookedup te_yukon palimblin piscatormemori outdoormash ifishalberta ifishontario thank
p1108
aVcanuckbassin redjoepa bigbasschalleng thank chri
p1109
aVsmitedatin tell nightmar scylla chest item
p1110
aVsmitedatin nightmar skin
p1111
aVcanuckbassin kookilur great color
p1112
aVcanuckbassin kookilur nice m sure ll proud
p1113
aVsemoutdoor limeybasstard stonepac well prove more bag thank
p1114
aVlimeybasstard stonepac long your plastic plano use mine like wa worri dri
p1115
aVcanuckbassin anglers_choic look like band shirt dig
p1116
aVcanuckbassin semoutdoor anglers_choic good lord huge
p1117
aVpitchinjigz grow quick leav fish store new pack plastic tri
p1118
aVpitchinjigz good start
p1119
aVlimeybasstard mgaryhanson gpowellfish thank dave
p1120
aVcanuckbassin redjoepa bigbasschalleng agentsofangl lunkerhuntertom lunkerhunterjay thank chri
p1121
aVbagwellfish hearn_stev bass_nat bassfishntip fishhound timboetsch yotobait wileyx gotta throw wacki senko there
p1122
aVcanuckbassin sprofish look lot like storm arashi onli skinnier
p1123
aVhell deal love trade progr
p1124
aVgotta scratch itch ve resist buy ani new gear reason
p1125
aVbackyard snowi hallway are p
p1126
aVunless have abil give more credit all retent give obvious want busi
p1127
aVcanuckbassin tesanton yeah pretti hose ship convers rate pain right
p1128
aVcanuckbassin tesanton charg small fortun ship canada
p1129
aVcanuckbassin tesanton yeah usual cross border shop onc month border onli away
p1130
aVcanuckbassin thank chri ve want pick some tesanton swim jig will have check spinner
p1131
aVbassinbiologist berkleyfish cnsstoronto wish wa there
p1132
aVlimeybasstard gillhunterz canuckbassin canuckbassinjr itch tie big hookless swimbait pitch cat hall
p1133
aVlimeybasstard gillhunterz canuckbassin canuckbassinjr wait tri tie weight practic flip pitch insid
p1134
aVbasportscard limeybasstard canuckbassin gillhunterz canuckbassinjr never realli need
p1135
aVbasportscard limeybasstard canuckbassin gillhunterz canuckbassinjr pick
p1136
aVcanuckbassin basportscard limeybasstard gillhunterz canuckbassinjr lews_fish spool braid fluro
p1137
aVcanuckbassin basportscard limeybasstard gillhunterz canuckbassinjr usual ran
p1138
aVcanuckbassin limeybasstard basportscard gillhunterz canuckbassinjr love lews_fish enjoy look forward review
p1139
aVlimeybasstard canuckbassin basportscard gillhunterz canuckbassinjr way need spend ton just start
p1140
aVbasportscard limeybasstard canuckbassin gillhunterz canuckbassinjr mayb wa problem onli ran braid
p1141
aVlimeybasstard canuckbassin basportscard gillhunterz canuckbassinjr onc save lews_fish c world chang
p1142
aVlimeybasstard canuckbassin basportscard gillhunterz canuckbassinjr gave c constant bird nest
p1143
aVlimeybasstard canuckbassin basportscard gillhunterz canuckbassinjr lews_fish c wa abu_garcia black max hate p
p1144
aVhearn_stev jaygrav gunslingermoor gillhunterz thank steve
p1145
aVsmitedatin janu skin look sick wait live
p1146
aVschi those are sick
p1147
aVhirezchri new chang are come
p1148
aVoutdoorwalsh cool shot
p1149
aVhearn_stev gpowellfish mkotzum look dn good
p1150
aVhirezchri poolseidon instead p
p1151
aVponponsmit great idea will definit make easier new player involv
p1152
aVschi nice respons boss man sad repercuss dm great share ge info bm
p1153
aVsmitefireguid love new meta fun
p1154
aVhirezchri nooooooooooooooo pt ha fun ani eta deploy
p1155
aVlimeybasstard great hear buddi
p1156
aVschi awesom skin
p1157
aVhirezdrybear love
p1158
aVsmitedatin hope guardian hope bellona card
p1159
aVshk_n_bke mezmoreyezsmit watch mari
p1160
aVsay haven done liar
p1161
aVfreedomtackl fishbumstor anglers_choic best best buycanadian buyloc
p1162
aVel_paar mezmoreyezsmit loki did just shit floor face
p1163
aVfallbrawl bridgeheadroast send one se weather here montreal
p1164
aVanglers_choic thank
p1165
aVthank nick
p1166
aVschi abl befor more player dc load are frustrat wast time
p1167
aVsmitepro more snake jungl
p1168
aVhirezdrybear spoil plz
p1169
aVcanuckbassin kookilur have curiou these sinc were releas love concept have pick tri
p1170
aVmezmoreyezsmit world streer problem
p1171
aVlimeybasstard hearn_stev add quick make messi time line list are where
p1172
aVhirezmartini maybepurifi hirezmacita hootsuit gt
p1173
aVtimhorton mccafe mcd_canada
p1174
aVhirezdrybear col_incon great video incon need one these everi role new meta
p1175
aVspiffsinist
p1176
aVcanuckbassin ve got sub look forward your vid
p1177
aVmezmoreyezsmit nice your butt will thank even your wallet won
p1178
aVmezmoreyezsmit did order
p1179
aVcanuckbassin lews_fish lew where ve got love way better old abu
p1180
aVhirezapc scottgandhi nice select gear love yato plastic great stuff
p1181
aVhirezbart dat ass
p1182
aVtowerrigg bassprotoronto cheap bass pro trip thing
p1183
aVdooneyranch bassinbiologist rieckma hdooney have fun
p1184
aVkevkingfish thank kev
p1185
aVcanuckbassin thank buddi
p1186
aVthank nick
p1187
aVponponsmit cog
p1188
aVgordpyz yike frosti
p1189
aVtruth never use sick have kid daycar sick all time littl viral incub
p1190
aVcanuckbassin tesanton anglers_choic awesom look combo
p1191
aVhirezhinduman thank
p1192
aVcanuckbassin limeybasstard fishontariof nice fish boy
p1193
aVlylli mani
p1194
aVoneplu pre order tomorrow will here canada christma
p1195
aVlylli lol crazi m still denial even come
p1196
aVcanuckbassin thank chri
p1197
aVthank nick
p1198
aVthank scott
p1199
aVlylli bro even lift bro
p1200
ag268
aVm plan weekend weather look great chanc season
p1201
aVnick
p1202
aVkettlebrand jalap sea salt yum haven seen sriracha need
p1203
aVhirezdrybear end summer sale bro pool siden
p1204
aVcursenetwork logitechg sexi
p1205
aVeyak mmm capres salad favorit
p1206
aVgood goal have
p1207
aVmashabl wtf hope zeppelin sue
p1208
aV_benwoo where were fish
p1209
aVlylli year full cast gener think
p1210
aVlylli even sir patrick stewart onli
p1211
aVlylli yeah p cheapest option option money hungri
p1212
aVlylli have pay autograph more more
p1213
aVwant bet drive bmw merced drive boat se way
p1214
aVfreedomtackl pic
p1215
aVlylli just liter took block stop light bu short block
p1216
aVtowerrigg nice
p1217
aVkevkingfish thank kev
p1218
aVcanadianfishn there onli real kill shot made canada anglers_choic
p1219
aVcanuckbassin thank chri
p1220
aVthank nick
p1221
aVkevkingfish thank kev
p1222
aVschi hirezdrybear miss spoil button placement sound like good ne new ge mode
p1223
aVstixnstonesinc there tast fresh cpfire coffe just beat
p1224
aVandersfish have tri one
p1225
aVnice fish
p1226
aVtheperfectjig thank guy
p1227
aVanglerandhunt there just fix stupid
p1228
aVcanuckbassin thank chri
p1229
aVkevkingfish thank kev
p1230
aVthank blake
p1231
aVnick
p1232
aVnetflixhelp thnx
p1233
aVnetflixhelp xbox 360
p1234
aVcanuckbassin hate make wanna jump grab
p1235
aVwork restart xbox wifi did trick
p1236
aVcanuckbassin xzonelur nice walli
p1237
aVhellonwheelsc canuckbassin love
p1238
aVtheperfectjig thank guy
p1239
aVthank nick
p1240
aVkevkingfish thank kev
p1241
aVcanuckbassin thank chri
p1242
aVjiepistilli need doctor
p1243
aVdignitaslassiz hireznabil wanna make smitelov ya woman wanna lay ya fire
p1244
aVcanuckbassin yeah even dollar store junk handl break good all
p1245
aVcanuckbassin wow pretti junki
p1246
aVcanuckbassin are hung ve never problem mine honestli use often
p1247
asg128
Vcreativ thinker special social media digit market write pr passion ging fish wfn bassador smite player
p1248
ssa(dp1249
g2
Vilario falcon updat hi cover photo edit crich share peopl like ilario falcon start work progetto made itali eccellenz digital di googl unionceredigit strategist shareilario falcon chang hi profil pictur share peopl like view more comment remov ilario falcon beh se la mettet era sempr quella mia vecchia idea di diventar sindaco del mondo ci posso ripensarese translat remov cristina weiss mah guarda mi sembra una validissima proposta translat remov simona scuncio profescion june remov ilario falcon si si translat june ilario falcon chang hi profil pictur share peopl like view more comment remov ilario falcon beh se la mettet era sempr quella mia vecchia idea di diventar sindaco del mondo ci posso ripensarese translat remov cristina weiss mah guarda mi sembra una validissima proposta translat remov simona scuncio profescion june remov ilario falcon si si translat june
p1250
sg4
(dp1251
g6
(lp1252
Vmarket comunicazion le aziend
p1253
aVfaculti econom
p1254
aVpubblicit
p1255
aVcodic qualifica 311418
p1256
asg12
g268
sg14
Vdigit strategist ma market commun graduat aspir world improv
p1257
sg16
(lp1258
Vmarket strategi
p1259
aVmarket commun
p1260
aVnetnographi
p1261
aVsocial media market
p1262
aVsocial network
p1263
aVweb market
p1264
aVblog
p1265
aVpublic relat
p1266
aVwebsit develo
p1267
aVphotoshop
p1268
aVdreweav
p1269
aVcm
p1270
aVwordpress
p1271
aVjoomla
p1272
aVdrupal
p1273
aVmicrosoft offic
p1274
aVvideo edit
p1275
aVstrategia di market
p1276
aVsocial media
p1277
aVe commerc
p1278
asg60
(lp1279
sg84
Vmarket advertis
p1280
sg86
(lp1281
sg93
(lp1282
Vdigitalizzator progetto made itali eccellenz digital di googl unioncer
p1283
aVdigit strategist presso googl unioncer
p1284
aVdigit strategist il progetto eccellenz digital presso unioncer googl italia
p1285
aVstudent universit degli studi di firenz
p1286
aVdigit strategist presso eccellenz digital
p1287
aVdigit strategist eccellenz digital googl unioncer presso cera di commercio di firenz
p1288
aVtelecommun engin univers trento
p1289
aVdigit strategist progetto eccellenz digital di googl unioncer
p1290
aVborsista presso progetto eccellenz digital di googl unioncer
p1291
aVdigit market strategist videomak freelanc
p1292
asg105
(lp1293
sg117
(lp1294
Vuniversit degli studi di urbino carlo bo
p1295
aVuniversit degli studi di urbino carlo bo
p1296
aVunivers agder uia
p1297
aVuniversit degli studi di tero
p1298
aVl cisl abruzzo tero
p1299
assg123
(dp1300
g125
(lp1301
Vimbecilla agnello alla brace come cit
p1302
aVfatchallow use forc http dfyzvms33n
p1303
aVaboutdotm android app
p1304
aVboredpanda nice idea
p1305
aVimbecilla sublim
p1306
aVimbecilla poesia
p1307
aVfatchallow mazinga
p1308
aVsimonasissi unfortun
p1309
aVmysteryguitarm invent scari stori pumpkin face muahahahahaha
p1310
aVcabinablu wa cool time peed shower mi sento molto meglio dopo questo
p1311
aVwstolton yep drink beer sleep
p1312
aVwstolton good fuck hot itali right are
p1313
aVsimonasissi sublim
p1314
aVlddio transenn
p1315
aVjackmigani whattaffucckk
p1316
aVtettajon sporc parc
p1317
aVshiligr m norway erasmu oh yeah
p1318
asg128
Vdigit strategist eccellenzeindigital di googleitalia unioncer presso cciaafoggia laureato market comunicazion aspir world improv
p1319
ssa(dp1320
g2
Vmegan wilson yoto chang profil pictur creat facebook com celebrateprid share peopl like megan wilson yoto share barack oba photo heart emoticon barack oba love just won share peopl like megan wilson yoto happi father day best dad ever thank mark wilson share peopl like remov mark wilson buy garden tool june remov clark d wilson happi father day note got like your got heck june remov nanci wilson have pink hair june wilson yoto chang profil pictur edit aze shot zhush portrait june wcw event come month meet some new friend have glass wine fantast photo share peopl like view more comment remov nanci wilson good profession headshot june remov long wow gorgeou photo june remov franci henri good megan june remov mark wilson perfect profession photo your resum june wilson yoto join tonight awesom event zhush portrait cocktail snack great peopl new headshot all your social media hope all there join woman crush wednesday zhush portrait wednesday pdtzhush portrait issaquah peopl went share peopl like megan wilson yoto ad explain whi happen omlyinjapan weird world ad new photo there trend japan shave dog fur cube share peopl like remov clark d wilson improvis sinc there are boxer japan june remov ad yoto hip squar june remov patrick emeri minecraft june wilson yoto clocktow media know ani aze end develop seattl area clocktow media end web develop hi web design seattl wa are digit agenc ping pong seattl need web design like play ge ping pong talk play clocktowermedia com share franci henri like megan wilson yoto happi father day best dad ever thank mark wilson share peopl like remov mark wilson buy garden tool june remov clark d wilson happi father day note got like your got heck june remov nanci wilson have pink hair june wilson yoto chang profil pictur edit aze shot zhush portrait june wcw event come month meet some new friend have glass wine fantast photo share peopl like view more comment remov nanci wilson good profession headshot june remov long wow gorgeou photo june remov franci henri good megan june remov mark wilson perfect profession photo your resum june wilson yoto join tonight awesom event zhush portrait cocktail snack great peopl new headshot all your social media hope all there join woman crush wednesday zhush portrait wednesday pdtzhush portrait issaquah peopl went share peopl like megan wilson yoto ad explain whi happen omlyinjapan weird world ad new photo there trend japan shave dog fur cube share peopl like remov clark d wilson improvis sinc there are boxer japan june remov ad yoto hip squar june remov patrick emeri minecraft june wilson yoto clocktow media know ani aze end develop seattl area clocktow media end web develop hi web design seattl wa are digit agenc ping pong seattl need web design like play ge ping pong talk play clocktowermedia com share franci henri like
p1321
sg4
(dp1322
g6
(lp1323
Vcommun
p1324
aVemerg leadership institut
p1325
aVfine studio art
p1326
aVhs diploma
p1327
asg12
Vadvertis profession passion cross channel market brand digit strategi client relat busi develo te time budget manag allow work creativ digit te develop integr market cpaign tell effect dynic stori spur action quick learner idea gener have signific experi work lead te stand readi play role necessari produc innov deliver cheerlead strategi director barista passion stay ahead trend usual plug smartphon tablet check foursquar catch news twitter play paparazzi instagr feed creativ tumblr
p1328
sg14
Vdirector account clocktow media
p1329
sg16
(lp1330
Vsocial media market
p1331
aVmarket commun
p1332
aVdigit strategi
p1333
aVadvertis
p1334
aVonlin market
p1335
aVmarket
p1336
aVsocial media
p1337
aVintegr market
p1338
aVstrategi
p1339
aVmarket strategi
p1340
aVseo
p1341
aVdigit market
p1342
aVleadership
p1343
aVmarket research
p1344
aVpublic relat
p1345
aVmanag
p1346
aVonlin advertis
p1347
aVproject manag
p1348
aVbrand implement
p1349
aVcreativ direct
p1350
aVcrm
p1351
aVbusi develo
p1352
aVstrateg commun
p1353
aVnew busi develo
p1354
aVaccount manag
p1355
aVweb project manag
p1356
aVmobil market
p1357
aVcorpor commun
p1358
aVfacebook
p1359
aVmedia plan
p1360
aVmarket manag
p1361
aVcreativ servic
p1362
aVcreativ brand
p1363
aVsearch engin posit
p1364
aVinbound market
p1365
asg60
(lp1366
sg84
Vmarket advertis
p1367
sg86
(lp1368
Vclocktow media help client fulli realiz web initi manag te talent peopl ensur project are deliv scope time budget goal creat client experi second none industri
p1369
aVprovid inbound market support strategi implement zooppa pioneer crowdsourc creativ content brand consult gener meaning content dissemin content strateg social channel drive lead gener
p1370
aVtmp led client initi includ brand websit design develo sem seo social digit print media cpaign all focus recruit employ brand work nationwid te develop strategi design concept develop messag analyz metric provid highest level custom servic client includ mani fortun organ serv intern advoc client grew busi optim strategi client relationship develo
p1371
aVmegan yoto gmail com
p1372
asg93
(lp1373
Vdirector project manag clocktow media
p1374
aVfounder clocktow media
p1375
aVproject manag product manag web develo market
p1376
aVvp oper clocktow media
p1377
aVaccount manag
p1378
aVphp web develop clocktow media
p1379
aVaccount servic director leapfrog solut
p1380
aVlead web design end develop clocktow media
p1381
aVindepend busi owner acn
p1382
aVend web develop clocktow media
p1383
asg105
(lp1384
sg117
(lp1385
Vgeorg mason univers
p1386
aVsecond wind
p1387
aVleadership fairfax
p1388
aVunivers western ontario
p1389
aVart institut washington
p1390
aVflint hill school
p1391
assg123
(dp1392
g125
(lp1393
sg128
g268
ssa(dp1394
g2
Vrandi bowden hr clito ga unit state mask canadian wwe hall fe member roddi piper die wwe legend rowdi roddi piper die wwe legend rowdi roddi piper die after suffer heart attack hi hollywood home wa born roderick georg toomb piper join wwe after hi start nwa varieti com mariann zumberg like like share peopl like randi bowden share sean whalen video clariti beleedat watch later view sean whalen upload new video lion sheep like like share peopl like randi bowden honor nation mutt day happi say littl charmer ha reunit hi fili facebook did scubbi learn hi given ne excel yellow black mouth cur month old pup shalah oglesbi bowden bowden roost comment like share peopl like remov dori ragsdal dicken just preciou thought keeper like hr remov randi bowden want dori like remov klaudia jurewicz just look nose eye like hrsrandi bowden hr clito ga unit state antidot fifti enemi one true friend comment like share peopl like remov arthur ofieldstr ye coconut mat wink emoticon like hrsrandi bowden share unilad video f ck truck watch more watch watch later view unilad upload new video news report ck some absolut aze news report ck like like share peopl like randi bowden have educ student deepa kumar twitter ye isi brutal more million kill iraq afghanistan pakistan notowar democracynow http fjaszektyd twitter com deepa kumar like sharerandi bowden honor nation mutt day happi say littl charmer ha reunit hi fili facebook did scubbi learn hi given ne excel yellow black mouth cur month old pup shalah oglesbi bowden bowden roost comment like share peopl like remov dori ragsdal dicken just preciou thought keeper like hr remov randi bowden want dori like remov klaudia jurewicz just look nose eye like hrsrandi bowden hr clito ga unit state antidot fifti enemi one true friend comment like share peopl like remov arthur ofieldstr ye coconut mat wink emoticon like hrsrandi bowden share unilad video f ck truck watch more watch watch later view unilad upload new video news report ck some absolut aze news report ck like like share peopl like randi bowden have educ student deepa kumar twitter ye isi brutal more million kill iraq afghanistan pakistan notowar democracynow http fjaszektyd twitter com deepa kumar like share
p1395
sg4
(dp1396
g6
(lp1397
Vbusi manag market huizenga busi school
p1398
aVliber art
p1399
aVcolleg prep
p1400
asg12
Vmarket execut deliv strong strateg plan analysi skill market busi strategi highli quantit metric driven mindset br br excel leadership commun decis make problem solv organiz skill br demonstr abil provid leadership strateg oper level includ build social media strategi te br natur work collabor execut leadership te creat result driven collegi environ br proven track record develop implement market strategi have consist met exceed plan object signific brand categori manag experi br signific experi plan market strategi advertis cpaign success public relat effort includ work busi press br except knowledg social media compani use advantag
p1401
sg14
Vmarket brand profession passion advertis current princip partner llc
p1402
sg16
(lp1403
sg60
(lp1404
sg84
Vmarket advertis
p1405
sg86
(lp1406
Vnovemb studio full servic boutiqu style product compani special outdoor multimedia project
p1407
aVdirect all aspect market function organ includ brand manag promot print web tv nation convent revenu stre maintain exist well new sponsor partner
p1408
aVheld variou market posit oper compani gulf power savannah electr georgia power larg indusrti key account manag well commerci residenti
p1409
asg93
(lp1410
Vsaltwat progr director owner yellow dog flyfish adventur
p1411
aVsenior buyer director retail oper wholesal
p1412
aVdirector sale market springfield remanufactur corp
p1413
aVfinanci servic profession
p1414
aVadministr baker group
p1415
aVowner
p1416
aVfondateur et ceo agenc web mhotep
p1417
aVtrain northern erica assist tiffani compani
p1418
aVceo p market inc better known pass pirulo music promot inc
p1419
aVvice presid outdoor group llc
p1420
asg105
(lp1421
Vnatur world all
p1422
asg117
(lp1423
Vnova southeastern univers
p1424
aVpensacola state colleg
p1425
aVpensacola privat school liber art
p1426
assg123
(dp1427
g125
(lp1428
Vrayhiltz have work hard head beach week
p1429
aVjanlgordon se jan
p1430
aVmarketingmblack thank
p1431
aVrayhiltz certainli ray
p1432
aVcorinanea joy corina
p1433
aVmadsmscientist think all posit say enjoy
p1434
aVmemktgservic sllooooowlllyyi
p1435
aVmadsmscientist tic toc tic toc soon
p1436
aVitsjessicann all good these guy are well http 2xsp2ezow8
p1437
aVjanlgordon yahoo hope have relax plan
p1438
aVjanlgordon enjoy
p1439
aVjanlgordon ha good one your
p1440
aVjanlgordon pleasur jan have great day
p1441
aVlowescar your respons appreci understand just doesn happen still custom still bassador
p1442
aVlowescar thank repli patient wait wa statesboro ga store
p1443
aVdivahound certainli
p1444
aVannettefranz happi annett
p1445
aVrayhiltz honest love all time pack move unpack
p1446
aVpleasur adrienn
p1447
asg128
Vmarket brand guy nativ floridian georgia transplant southern enthusiast age bourbon
p1448
ssa(dp1449
g2
Vmuhmad hassan akbar start work engin share peopl like view more comment remov muhmad hassan tahseen congratul smile emoticon juli remov sara rizwan congratz cousin juli remov yusra farooq congrat cousion like emoticon juli remov aimen muddass hara munna bara ho gaya hay translat juli remov muhmad hassan akbar aur koi option bhi tu ni tongu emoticonse translat juli muhmad hassan akbar updat hi cover photo edit batchnight comment like share peopl like remov zain chaudhri wah like remov osa hafeez like emoticon like june muhmad hassan akbar wa fast nu lahor edit fast nu lahor like like share peopl like muhmad hassan akbar chang hi profil pictur like like share peopl like muhmad hassan akbar wa pindi point murre edit shall never know all good simpl smile mother teresa pindi point murre comment like share peopl like view more comment remov ehtash khan kiya baat hai bahi tongu emoticonse translat august like remov muhmad hassan akbar kya baat ha ehtash tongu emoticon august like remov ehtash khan tongu emoticon august like remov muhmad hassan akbar ye konsi wali ha grin emoticon abi bhi baten lga la tongu emoticon translat octob edit likemuhmad hassan akbar wa patriata murre edit just need beauti place clear head summer youmeazadi patriata murre comment like share peopl like remov muhmad rehan mashallah nice smile emoticon like remov sana saad wahhh cousin august like remov umar tahir apnaa larkaa heart emoticon grin emoticonse translat septemb like remov muhmad hassan akbar grin emoticonse translat septemb like hassan akbar chang hi profil pictur comment like share peopl like view more comment remov chowdri hasan saadat best tongu emoticon edit like remov muhmad hassan akbar grin emoticon like remov maha kal chaudhri rangeen ankhain tongu emoticon like remov muhmad hassan akbar tongu emoticon likemuhmad hassan akbar edit rdan beard thakawat comment like share peopl like view previou comment remov wale arshad rathor sada kutta kutta tuhada kutta tommi wink emoticonse translat juli edit like remov wale arshad rathor still offend apolog muhmad hassan akbaryusra awai one have fun hi brotherz sister whatz point have sorri onc juli like remov wale sial are resembl bradley cooper man wink emoticon juli edit likemuhmad hassan akbar updat hi cover photo edit badshah ki bdi tongu emoticon comment like share peopl like remov sy hasan badshah nice one like emoticon smile emoticon june like hassan akbar updat hi cover photo edit credit bilal comment like share peopl like remov aleem jave pic main yar tu ali moin nawazish lag rha grin emoticon like remov muhmad hassan akbar devil emoticon like hassan akbar wa khanpur edit recoveri bilal farhan sunglass emoticon pc bilal grin emoticon khanpur comment like share peopl like view more comment remov muhmad hassan akbar sana style zara hat tongu emoticon leenah bs yehi baat ha grin emoticon april like remov arslan rao look smart magar kesi grin emoticon april like remov muhmad hassan akbar lo tumha ni pta tongu emoticon baji ubtan ka kal ha sara grin emoticon ifuknowwhatimean april like remov arslan rao grin emoticon april likemuhmad hassan akbar edit dre come true plan ieee nuce invit ieee march regist till march one largest event fast nu inform visit www ieee nuce com ps all school children there have competit well more like like share peopl like muhmad hassan akbar updat hi cover photo edit dre come true plan ieee nuce invit ieee march regist till march one largest event fast nu inform visit www ieee nuce com ps all school children there have competit well more like like share peopl like muhmad hassan akbar chang hi profil pictur edit present final design poster softec all set sweep all your feet readi experi excit t event year just more day registr end march regist click www softecnu org comment like share peopl like remov abdul rehman cheema aa raha hun jeetnay like remov muhmad hassan akbar shokhalumswalo aja aja grin emoticon like remov abdul rehman cheema te ppr ho rahay hain dost hai random logse translat like remov muhmad hassan akbar tumhari te paper softec pa hi ata hain tongu emoticon bestofluck tournent sunglass emoticon like hassan akbar wa bilal rao edit happi hangout friend wink emoticon moodvariationfromlefttoright bilal rao comment like share peopl like view more comment remov bilal rao tongu emoticon lhr cpu ka jitna bhi piyaaa ha raaa agya ha tongu emoticon grin emoticon februari like remov abba raza devil emoticon februari like remov noman zahid nice dear februari like remov arslan rao good one boy like emoticon februari like hassan akbar edit photo credit najem riaz photographi comment like share peopl like view more comment remov muhmad hassan akbar grin emoticon ali did there devil emoticon februari like remov ali mehroz hahaha bilal hassan bhai ap sey pehlay puhanch chukay hain baat pe februari like remov bilal rao ali yrrr hassan bht phnchi hui chz jo ha phr tongu emoticonse translat februari like remov ali mehroz grin emoticon februari likemuhmad hassan akbar updat hi cover photo edit badshah ki bdi tongu emoticon comment like share peopl like remov sy hasan badshah nice one like emoticon smile emoticon june like hassan akbar updat hi cover photo edit credit bilal comment like share peopl like remov aleem jave pic main yar tu ali moin nawazish lag rha grin emoticon like remov muhmad hassan akbar devil emoticon like hassan akbar wa khanpur edit recoveri bilal farhan sunglass emoticon pc bilal grin emoticon khanpur comment like share peopl like view more comment remov muhmad hassan akbar sana style zara hat tongu emoticon leenah bs yehi baat ha grin emoticon april like remov arslan rao look smart magar kesi grin emoticon april like remov muhmad hassan akbar lo tumha ni pta tongu emoticon baji ubtan ka kal ha sara grin emoticon ifuknowwhatimean april like remov arslan rao grin emoticon april likemuhmad hassan akbar edit dre come true plan ieee nuce invit ieee march regist till march one largest event fast nu inform visit www ieee nuce com ps all school children there have competit well more like like share peopl like muhmad hassan akbar updat hi cover photo edit dre come true plan ieee nuce invit ieee march regist till march one largest event fast nu inform visit www ieee nuce com ps all school children there have competit well more like like share peopl like muhmad hassan akbar chang hi profil pictur edit present final design poster softec all set sweep all your feet readi experi excit t event year just more day registr end march regist click www softecnu org comment like share peopl like remov abdul rehman cheema aa raha hun jeetnay like remov muhmad hassan akbar shokhalumswalo aja aja grin emoticon like remov abdul rehman cheema te ppr ho rahay hain dost hai random logse translat like remov muhmad hassan akbar tumhari te paper softec pa hi ata hain tongu emoticon bestofluck tournent sunglass emoticon like hassan akbar wa bilal rao edit happi hangout friend wink emoticon moodvariationfromlefttoright bilal rao comment like share peopl like view more comment remov bilal rao tongu emoticon lhr cpu ka jitna bhi piyaaa ha raaa agya ha tongu emoticon grin emoticon februari like remov abba raza devil emoticon februari like remov noman zahid nice dear februari like remov arslan rao good one boy like emoticon februari like hassan akbar edit photo credit najem riaz photographi comment like share peopl like view more comment remov muhmad hassan akbar grin emoticon ali did there devil emoticon februari like remov ali mehroz hahaha bilal hassan bhai ap sey pehlay puhanch chukay hain baat pe februari like remov bilal rao ali yrrr hassan bht phnchi hui chz jo ha phr tongu emoticonse translat februari like remov ali mehroz grin emoticon februari like
p1450
sg4
(dp1451
g6
(lp1452
Votra
p1453
asg12
Ven el ultimo propuesto dar giro mi carrera profesion partiendo mi experiencia os en el sector inform tica internet liderando proyecto habiendo vivido en vario pa se br br logrado focalizar mi objetivo crecimiento empresari consultor estrategia basada en mi trayectoria experiencia perspectiva diferent la tradicional br br acuerdo comercial innovaci estrat gica negocio market captaci client entr otro aportando valor crecimiento onlin potenciando la estrategia line br br siempr tenido la oportunidad desarrollar mi actividad en variedad mercado innovador siempr reportando bueno excelent resultado negocio la clave del xito la persona ahora llevo mi experiencia lo proyecto que realment le interesa crecer en todo lo sentido
p1454
sg14
Vreestructurando mi vida labor
p1455
sg16
(lp1456
Vseo
p1457
aVsocial media
p1458
aVoptimizaci en buscador
p1459
aVproject manag
p1460
aVsale manag consult
p1461
aVmanag consult
p1462
aVweb analyt
p1463
aVnatur seo
p1464
aVweb servic
p1465
aVproduct manag
p1466
aVbusi format
p1467
aVsale manag
p1468
aVsport
p1469
aVoutsourc
p1470
aVwebsit develo
p1471
aVonlin product
p1472
asg60
(lp1473
sg84
Vinternet
p1474
sg86
(lp1475
Vpara el progra crecimiento empresa emprendedor hace mese comenzado dar formaci en bcn activa una entidad dond se ayuda mucho lo emprendedor estoy orgulloso ofrec mi servicio en formaci para todo lo que sea venta onlin internet
p1476
aVel tano store surg partir una vivencia person que queremo compartir contigo nuestro hobbi es el ciclismo lo cpo catalan que vemo desd lo cino regado por el sol mediterr neo hicieron descubrir ma que producen vino magn fico fruto seco conserva mermelada legumbr una calidad muy superior la que se pued comprar en cualquier tienda la curiosidad hizo conoc una centena productor pequ os innovador comprometido lo suyo quien fuimo comprando menudo quien construimo una relaci vimo su necesidad escapar una gesti comerci en la ciudad para llegar directent t esto es lo que pretend ser el tano store ponemo en marcha puent que va unir la naturaleza tu salud vo acercart productor cuyo ximo valor es la calidad pequ escala para que te el gusto que ya dimo nosotro te invito disfrutar esto producto singular fresco salud
p1477
aVuno lo mejor grupo trabajo en lo que estado si ere mailxmail respons desarrollo backoffic newslett corregistro
p1478
aVdirecci proyecto fidelizaci onlin client para empresa franquicia toda espa y portug
p1479
aVcontacta sin compromiso aqu estar para respond
p1480
asg93
(lp1481
Vdirector market
p1482
aVsocio director en zinkdo
p1483
aVbusi develo
p1484
aVdomain internet consult
p1485
aVcreativ art director owner en integra comunicaci
p1486
aVdirector d en traycco
p1487
aVmanag director barcelona nivoria solut
p1488
aVdirector edeb digit en grupo edeb
p1489
aVseo manag en tika softwar
p1490
aVceo seo manag conceptu web design
p1491
asg105
(lp1492
Vnueva tecnolog
p1493
aVinternet
p1494
aVseo
p1495
aVdise web
p1496
aVprograci web
p1497
aVciclismo
p1498
aVdeport gener
p1499
asg117
(lp1500
Vuniversidad tecnol gica nacion
p1501
assg123
(dp1502
g125
(lp1503
sg128
Vespecializado en desarrollo crecimiento negocio venta onlin pasi por el ciclismo lo deport
p1504
ssa(dp1505
g2
Verni aria ocean world adventur park marina casino hr instagr like shareerni aria ocean world adventur park marina casino hr instagr like like share cinthia smith like erni aria ad new photo ocean world adventur park marina casino comment like share peopl like remov madhu dha awesom pix smile emoticon like juli erni aria ocean world adventur park marina casino juli instagr like like share peopl like erni aria ocean world adventur park marina casino juli instagr comment like share peopl like remov martha cepeda que bellisima foto encanta disfrutenlose translat like juli remov cinthia smith um excus glad guy are enjoy your vacat make like juli remov toni pinal waoo mi enano cariosa ment tese translat like hr remov roberta burn sweet heart emoticon like hrserni aria ocean world adventur park marina casino juli instagr like like share peopl like erni aria ad new photo ocean world adventur park marina casino comment like share peopl like remov madhu dha awesom pix smile emoticon like juli erni aria ocean world adventur park marina casino juli instagr like like share peopl like erni aria ocean world adventur park marina casino juli instagr comment like share peopl like remov martha cepeda que bellisima foto encanta disfrutenlose translat like juli remov cinthia smith um excus glad guy are enjoy your vacat make like juli remov toni pinal waoo mi enano cariosa ment tese translat like hr remov roberta burn sweet heart emoticon like hrserni aria ocean world adventur park marina casino juli instagr like like share peopl like
p1506
sg4
(dp1507
g6
(lp1508
Vmac adob softwar train
p1509
aVsciences_system engin
p1510
aVenglish second languag
p1511
asg12
Vexperienc studio manag more year graphic industri superb print product pre press creativ develo digit new busi develo present knowledg manag over year ve learn everi studio ha person reason need custom direct base industri standard procedur abl function engag selessli rest agenc possess abil train coach manag te oper move level especi upgrad either equient softwar instruct new direct big fan procedur technolog main focu biggest asset human resourc download pdf cv http www scribd com doc resuerni br br specialti print product pre press creativ develo new busi present digit brand expert design engin studio procedur
p1512
sg14
Vstudio manag hogarth worldwid
p1513
sg16
(lp1514
Vpre press
p1515
aVgraphic design
p1516
aVdigit media
p1517
aVsocial media
p1518
aVindesign
p1519
aVadvertis
p1520
aVsocial network
p1521
aVillustr
p1522
aVphotoshop
p1523
aVnew busi develo
p1524
aVtroubleshoot
p1525
aVsocial media market
p1526
aVdigit asset manag
p1527
aVpresent develo
p1528
aVadvertis manag
p1529
aVdigit market
p1530
aVgraphic
p1531
aVadob creativ suit
p1532
aVmanag
p1533
aVstudio manag
p1534
aVerni aria
p1535
aVstudio manag
p1536
aVadvertis studio manag
p1537
aVmanag nyc
p1538
aVworkflow solut
p1539
aVbilingu
p1540
aVcreativ develo
p1541
aVprint product
p1542
aVdigit design
p1543
asg60
(lp1544
sg84
Vmarket advertis
p1545
sg86
(lp1546
Vstart freelanc klk staf servic agenc after month studio wa offer perman posit year later wa promot studio manag key player process upgrad depart modest mac oper studio world class fulli function studio state art softwar equient wa instrument creation studio qc depart
p1547
asg93
(lp1548
Vstudio manag mundocom worldwid
p1549
aVstudio manag
p1550
aVstudio manag transmiss
p1551
aVstudio manag ga
p1552
aVdirector integr studio servic
p1553
aVstudio manag ogilvi commonhealth redwork
p1554
aVdirector oper hogarth canada
p1555
aVstudio manag bbdo
p1556
aVstudio manag anomali
p1557
aVhuman resourc consult freelanc writer avail august hr strategi talent acquisit
p1558
asg105
(lp1559
Vsocial media
p1560
aVmarket
p1561
aVmobil devic
p1562
aVprint product
p1563
aVmanag
p1564
aVnew technolog
p1565
aVindustri trend
p1566
aVweb
p1567
aVstrateg think
p1568
aVplan
p1569
aVaugment realiti
p1570
aVleadership
p1571
aVadvertis studio manag
p1572
aVjwt studio manag
p1573
aVfacebook
p1574
aVtwitter
p1575
aVlinkedin
p1576
ag268
asg117
(lp1577
Vmacintosh learn center
p1578
aVmacintosh learn center
p1579
aVuniversidad aut noma santo domingo
p1580
aVuniversidad dominicana p m
p1581
aVinstituto cultur dominico ericano icda
p1582
assg123
(dp1583
g125
(lp1584
Vare welcom stevekrohn market transcreat
p1585
aVthank rt ing megashockmedia zonzascoop ff
p1586
aVthank rt beatpathsound zonzascoop
p1587
aVwolfehight thank rt
p1588
aVlastminuteusvac zonzascoop are welcom
p1589
aVdgdmarketng zonzascoop veri gerri leverag featur showcas your work while pitch new biz
p1590
aVzonzascoop m glad like shelli
p1591
aVgenaccesstravel parkhyattni hey gen believ meant mention nesak common friend ernieaaria kudo
p1592
aVgirismotiv realli funni real recoveri fit
p1593
aVhogarthww ye did wa great parti
p1594
aVchicagodesign zonzascoop hey michael check technolog http vq9ypzbdjn
p1595
aVff msmir thank twitter love
p1596
aVmpowermentalist zonzascoop thank mr vuong
p1597
aVrt zonzascoop new zonza blog p zonza digit asset manag technolog http http unnw6mdlvt
p1598
aVstewartmar rebelmous are veri welcom
p1599
aVresonancecont are veri welcom
p1600
aVsatmd zonzascoop d say bit more pinterest like import thing highli customiz tool
p1601
aVsocialwebcaf zonzascoop inde deborah learn more demo here http h1i1eddyri
p1602
aVzonzascoop are veri welcom
p1603
aVmsmir rebelmous thank miri
p1604
aVrt zonzascoop new zonza blog introduc zonza latest product featur releas zonza platform http wsurjocrdm
p1605
aVrt zonzascoop new zonza blog introduc zonza latest product featur releas zonza platform http x3jp2rapiy
p1606
aVff stewartmar thank shoutout stewart
p1607
aVff tufe zonzascoop hey tufail did request demo alreadi
p1608
aVmsmir thank miri
p1609
aVsallykwitt rebelmous thank shoutout salli
p1610
aVrt zonzascoop new zonza blog learn transcod cost save potenti corpor http ms11odifkl
p1611
aVkwaichi cool gadget thank share kwai
p1612
aVwarjesseagl yw excel articl jessica love suppli fact check sourc
p1613
aVbernieborg are welcom berni
p1614
aVtufe hogarthww innov workflow tool concept deliveri report provid real data real time
p1615
aVwebtoolswiki hogarthww inde extrem robust power tool
p1616
aVstevekrohn hogarthww thank steven
p1617
aVmsmir linkedin are veri welcom miri
p1618
aVsatmd thank michael m glad like
p1619
aVhscpaign hootsuit guy rule socialmedia manag
p1620
aVjberik are best kept secret career success http
p1621
aVpawmark ve cover more profit ratio varianc have realli want peopl read
p1622
aVthank stewartmar post your rebelmous page
p1623
aVstevekrohn zonzascoop hogarthww are veri welcom steve
p1624
aVoceansprayinc veri light inde
p1625
aVhogarthww thank rt zonzat ll right time
p1626
aVstewartmar thank showcas post your rebelmous page
p1627
aVwaterwayrealti hey mott thank rt post your rebelmous page eav
p1628
aVstevekrohn linkedin m glad like steven thank post your rebelmous page
p1629
aVsudipdasin thank sudip
p1630
aVfinalslimdown zonzascoop are veri welcom
p1631
aVpawmark agre store data instanc just data abil retriev distribut power se knowledg
p1632
aVare veri welcom ff
p1633
aVzonzascoop thank rt
p1634
asg128
Verni aria advertis studio manag hogarthww social media enthusiast dad husband opinion are http 4rtvk0owg2
p1635
ssa(dp1636
g2
Vfaraz ghori share akash video smile emoticon watch later view akash muhmad umar other woww faith dog chase bulanc after hi owner wa rush hospit after have seizur watch like www facebook com akashmusik like emoticon comment like share peopl like remov rafiq gori dog rock star like faraz ghori share princ ea video dear futur gener sorri learn more standfortre org watch watch later view princ ea upload new video dear futur gener sorri like like share peopl like faraz ghori final rain smile emoticon feel fresh dubai media citi savesav dubai media citi broadcast media product dubai unit arab emir were here comment like share peopl like remov sheetal ponda wow likefaraz ghori share willi foo photograph market technopreneur video art make book watch later view willi foo photograph market technopreneur marcella ribeiro other art make book like like share peopl like faraz ghori happi new year like like share peopl like faraz ghori share higher perspect video great speech alan watt realli mean human watch later view higher perspect araden lumban gaol aze speech alan watt discuss import truli mean human like sharefaraz ghori check soy dubai zomato decemb zomato just check report like share
p1637
sg4
(dp1638
g6
(lp1639
Vvisual commun
p1640
asg12
Vcreativ profession experi work line honest work mainli tri make line disappear idea craft execut media use br br experi corpor environ hous design studio allow adopt quickli exceed client expect transform vision creativ effect design solut talent creativ profession strength includ strong organiz skill self motiv reliabl abil hear client need multitask varieti project thirst challeng desir grow br br specialti br creativ conceptu think br cpaign develo br brand br art direct br design br photographi br print publish
p1641
sg14
Vsenior graphic design art director
p1642
sg16
(lp1643
Vart direct
p1644
aVcorpor ident
p1645
aVlogo design
p1646
aVadvertis
p1647
aVnewslett
p1648
aVcreativ direct
p1649
aVphotographi
p1650
aVbrochur
p1651
aVlayout
p1652
aVphotoshop
p1653
aVgraphic design
p1654
aVtypographi
p1655
aVgraphic
p1656
aVillustr
p1657
aVmagazin
p1658
aVposter
p1659
aVmicrosoft offic
p1660
aVvisual commun
p1661
aVart
p1662
aVillustr
p1663
aVadob creativ suit
p1664
aVpackag
p1665
aVmac
p1666
aVindesign
p1667
aVproduct
p1668
aVcorpor commun
p1669
aVtework
p1670
aVdreweav
p1671
aVcorpor brand
p1672
aVconcept design
p1673
aVdigit photographi
p1674
aVvisual
p1675
aVretouch
p1676
aVsocial network
p1677
aVhtml
p1678
aVlogo
p1679
aVflyer
p1680
aVbrand ident
p1681
aVconcept develo
p1682
aVcreativ strategi
p1683
asg60
(lp1684
sg84
Vgraphic design
p1685
sg86
(lp1686
sg93
(lp1687
Vhuman resourc administr manag middl east jcdecaux
p1688
aVart director
p1689
aVmanag director dubai northern emir jcdecaux
p1690
aVjunior graphic design jcdecaux
p1691
aVaccount manag jcdecaux
p1692
aVsr graphic design
p1693
aVdirector creativ servic inc
p1694
aVforb middl east art direct graphic design social media content strategi develop event brand
p1695
aVgraphic design hava worldwid middl east
p1696
aVarab graphic design finalis jra
p1697
asg105
(lp1698
Vtechnolog
p1699
aVphotographi videographi
p1700
aVart
p1701
aVvideo ge
p1702
aVtravel differ new place
p1703
aVcook
p1704
asg117
(lp1705
Vcbrian colleg
p1706
aVst ann high school
p1707
assg123
(dp1708
g125
(lp1709
Vbbcworld frankrgardn flag milit jihad check wikipedia http r2zseyls0x
p1710
aVaccount ha suspend
p1711
aVnatgeo will miracl
p1712
aVbbcworld new task chang all platform lol
p1713
aVwearegoat welcom
p1714
aVthank alot mauray just vote
p1715
aVcikel happi easter
p1716
aVpro_cur http gwmrltg7ij
p1717
aVsaraghori thanx love
p1718
asg128
Vcreativ design photograph foodi geek husband
p1719
ssa(dp1720
g2
Vzaiz chang hi profil pictur share
p1721
sg4
(dp1722
g6
(lp1723
sg12
g268
sg14
Vadvertis planner present design
p1724
sg16
(lp1725
Vmicrosoft word
p1726
aVmicrosoft excel
p1727
aVpowerpoint
p1728
aVkeynot
p1729
aVpresent
p1730
aVpresent design
p1731
aVphotoshop
p1732
aVillustr
p1733
aVphotographi
p1734
aVstrateg plan
p1735
aVevent plan
p1736
aVmarket plan
p1737
aVmedia plan
p1738
aVbackpack
p1739
aVtenni
p1740
asg60
(lp1741
sg84
Vmarket advertis
p1742
sg86
(lp1743
sg93
(lp1744
Vassist consult
p1745
aVstudent emerson colleg
p1746
aVresearch analyst intern mckinsey compani
p1747
aVstudent univers queensland
p1748
aVstudent univers wisconsin madison
p1749
aVaccount student univers wisconsin madison
p1750
aVcareer outreach coordin univers wisconsin madison
p1751
aVbusi analyst tbird
p1752
aVstudent georgetown univers
p1753
aVconsult
p1754
asg105
(lp1755
sg117
(lp1756
ssg123
(dp1757
g125
(lp1758
Vgoogleread googl well hope consid strateg decis evalu import loyal user your big compani
p1759
aVpinboard want all bookmark under one particular domain result search domain ani advic
p1760
aVnecheap januari 18th
p1761
aVwhatblock wire com gfwed report day ago here news http gd read news wall
p1762
aVwhatblock hi dude just wire com visit place nanj gfwed
p1763
aVcours r right govern make big move affect largest number peopl fastest way save earth
p1764
aVsandymorri prefer budget travel still thank refer
p1765
aVcall geek god rt cliffss weird news japanes ger marri nintendo charact
p1766
aVweird china all rt cliffss weird news chines cop drank death declar hero http ly k1k
p1767
aVlive here rt nelosolut lie lie befor are tini matter compar lie
p1768
aVrob_bieb peopl boil herbal medicin treat diseas like china
p1769
aVrob_bieb ye definit mani western like acupunctur btw know ani inform use herbal medicin canada
p1770
aVrob_bieb studi tcm like popular even china
p1771
aVrealli realli hope wenger win chpion leagu rt cliffss arsen titl race after arsen wenger rant inspir comeback
p1772
aVprofessor play fm like te talk lmao rt dplanet deserv wear arsen shirt time wenger laid law
p1773
aVcool are ur teacher china rt rob_bieb there are coupl colleg here toronto teach
p1774
aVrob_bieb hi dude m curiou studi chines medicin toronto
p1775
aVoften restaur rare home dinner rt saduki dswerski yum cha chines tradit involv drink tea eat dim sum
p1776
aVlike ding dong nickn rt stephenfri ding dong battl m call wizard dong snooker
p1777
aVgrow lot rt rt kate_bt ding ha person snooker cue
p1778
aVyeah ding rock domrobinson snooker
p1779
aVchitknit manvswild all true bear safe strong just some survivor skill common peopl good
p1780
aVsandraeu peopl your countri like drink chines tea
p1781
aVtradion red cup some decor pattern
p1782
aVwill tough time hull rt soccer__new jimmi bullard hull boss brown target januari return bullard
p1783
aVpoor ashton rt gbemzo sorri dean ashton hope job sky sport like jie redknapp
p1784
aVbullard hilari rt grahburglar jimmi bullard http www youtub com watch ukn0d5dlyxg
p1785
aVstill have best tework world rt tanmaytalak lionel messi barcelona lose best player world
p1786
aVtrevorai r welcom
p1787
aVlol got point rt carpediemnikki dear ubertwitt thank killn batteri lmao
p1788
aVmrtire doe herbal chines tea tast good
p1789
aVjokerkuang ubertwitt
p1790
asg128
g268
ssa(dp1791
g2
Vmarcia lpez hr eventioz vo translat gro conversacion edicin gro conversacion edicin eventioz com like sharemarcia lpez share sulic hauser photo prximent gatha anah su madrina marcia brace translat sulic hauser new cellogirl born smile emoticon happi mani young peopl children smile emoticon itali summer tour children futur like like share peopl like marcia lpez edit est es uno eso da en el que todo te roba el aliento que la sonrisa es ms espontnea aunqu en mi caso es todo lo da porqu cuento ngele que cobijan hacen su vida quien tengo el honor llar igo voy etiquetar solo alguno porqu toda la persona que comparten cino en est trajinar por el mundo la eu generan cbio para bien sepan eso se hacen idea lo feliz que hacen mi primero mejor igo mi padr quien pesar que digan que le tengo ms paciencia saben perfecto que le quiero ms que nada en el mundo mi ex compaero colegio facultad del ingl ay qu tiempo aquello mi hermano comunidad por quien dara la vida mi compaero trabajo secuac risa aprendizaj catarsi persona quien alguna vez compart espacio labor todo en serio tienen lugar muy important en mi corazoncito lila hoy te invito que celebremo la vida celebremo el pero por sobr todo celebremo el regalo ms grand que pap dio pudo dar lo sere humano celebremo la istad sin exceso es necesario coma alcohlico para demostrar cunto apreci alguien more translat comment like share peopl like view more comment remov karina texeira like juli remov gabriela ojeda tbin dara mi vida por vo encerio sentimiento nico tenert como hna saber que va estar ah incondicionalment toqu buena onda algo lila puestose translat like yesterday remov marcia lpez te quiero ta abracito leandrito beb miarse translat like yesterday remov teresita rolon fernandez felicidad mi princesase translat like yesterday remov fabin mndez feliz dia marcia abrazot translat like hrsmarcia lpez dio bendiga quien invent el pan trincha translat comment like share peopl like view more comment remov marco basualdo ennnnnnnnnse translat juli like remov frede seid ortiz diga que tbin te gusta mi madr si hay pan trincha lech trbol en cartn desayuna translat juli like remov nilda chavez martinez juli like remov nilda chavez martinez nsee translat juli likemarcia lpez empieza la maratn viern ye ye en vez pororo watch penni dread translat penni dread enter demimond want showtim anytim http showtimeanytim com savesav like sharemarcia lpez separaron mi hermano gemelo nacer descubr que su nombr es daniel jess verlo entiendo porqu gusta tanto el cello translat comment like share peopl like remov nadia dvalo argello cri emoticon haremo una cpaa para encontrarla wink emoticonse translat like juli remov fati schulz vallejo ungemelopararcia like juli marcia lpez edit est es uno eso da en el que todo te roba el aliento que la sonrisa es ms espontnea aunqu en mi caso es todo lo da porqu cuento ngele que cobijan hacen su vida quien tengo el honor llar igo voy etiquetar solo alguno porqu toda la persona que comparten cino en est trajinar por el mundo la eu generan cbio para bien sepan eso se hacen idea lo feliz que hacen mi primero mejor igo mi padr quien pesar que digan que le tengo ms paciencia saben perfecto que le quiero ms que nada en el mundo mi ex compaero colegio facultad del ingl ay qu tiempo aquello mi hermano comunidad por quien dara la vida mi compaero trabajo secuac risa aprendizaj catarsi persona quien alguna vez compart espacio labor todo en serio tienen lugar muy important en mi corazoncito lila hoy te invito que celebremo la vida celebremo el pero por sobr todo celebremo el regalo ms grand que pap dio pudo dar lo sere humano celebremo la istad sin exceso es necesario coma alcohlico para demostrar cunto apreci alguien more translat comment like share peopl like view more comment remov karina texeira like juli remov gabriela ojeda tbin dara mi vida por vo encerio sentimiento nico tenert como hna saber que va estar ah incondicionalment toqu buena onda algo lila puestose translat like yesterday remov marcia lpez te quiero ta abracito leandrito beb miarse translat like yesterday remov teresita rolon fernandez felicidad mi princesase translat like yesterday remov fabin mndez feliz dia marcia abrazot translat like hrsmarcia lpez dio bendiga quien invent el pan trincha translat comment like share peopl like view more comment remov marco basualdo ennnnnnnnnse translat juli like remov frede seid ortiz diga que tbin te gusta mi madr si hay pan trincha lech trbol en cartn desayuna translat juli like remov nilda chavez martinez juli like remov nilda chavez martinez nsee translat juli likemarcia lpez empieza la maratn viern ye ye en vez pororo watch penni dread translat penni dread enter demimond want showtim anytim http showtimeanytim com savesav like sharemarcia lpez separaron mi hermano gemelo nacer descubr que su nombr es daniel jess verlo entiendo porqu gusta tanto el cello translat comment like share peopl like remov nadia dvalo argello cri emoticon haremo una cpaa para encontrarla wink emoticonse translat like juli remov fati schulz vallejo ungemelopararcia like juli marcia lpez dursimo ayer el padr toni dio dond duel pero debo admitir que tuvo razn lo nombr lo jugador olimpia sabemo memoria pero lo apstol translat comment like share peopl like remov carlo fermin rivarola si se lo apstol gustara competir tipo conocimiento bblico algo translat like juli remov marcia lpez ah pa toni te va hacer pasar momento incmodo ejucarlosse translat like juli remov gadi brizuela plan jajaja incluyo unsur emoticonse translat like juli marcia lpez valentin cbi apellido avi cmo pio ico translat comment like share peopl like remov valentin zaracho pando juajuajuase translat like juli remov pao miranda qu raro esa es una prctica puntopeyens en la revista o foto social jajajajajase translat like juli remov marcia lpez entero ahorase translat like juli remov nati jimenez like juli marcia lpez esta noch toqu el cielo fernando roda avalo other la spezia pizza la parrilla translat comment like share peopl like view more comment remov anix gc el cielo se quedo corto marcia lpezse translat like juli remov dahiana rirez se ve increbl translat like juli remov teresita mndez argello jesuuuuuuuuuuuuu translat like juli remov leticia peralta quierooooooo gabriel pedrozo johana peralta cuando tengan su permitidose translat like juli marcia lpez fase espero completarla hoy nomolestar watch code geass translat comment like share peopl like remov ale peralta kulik que buen anim disfrtalo translat like juli remov marcia lpez eso har translat like juli remov gerardo mateo ay mi corazon quiero ver devuelta translat like juli editedmarcia lpez share tigo paraguay video le veo ac analia oscar anmens pue translat watch later view tigo paraguay upload new video porqu la grand idea solo necesitan espacio est ao vuelven lo premiostigoconecta si una idea basada en una plataforma digit la misma ropon una solucin innovadora una problemtica social biental postul ac http conecta tigo com py particip lo premio tigo conecta more translat comment like share oscar vairoleto gonzalez like remov oscar vairoleto gonzalez claro que sise translat like juli remov analia borba ojala est ao si tomen en cuenta smile emoticonse translat like juli marcia lpez juli medium mir vo ya est en marcha una nueva edicin lo premiostigoconecta una idea innovadora que pued salvar mundo mediant el uso la tecnologa si tu respuesta es mba pio reha rejepostula hagu translat tu oportunidad innovar lleg todo lo que tene que saber para postular lo premiostigoconecta medium com koga paraguay like like share peopl like
p1792
sg4
(dp1793
g6
(lp1794
Vmarket publicidad
p1795
aVidiom tica
p1796
asg12
Vlicenciada coraz proceso titulaci la carrera ciencia la comunicaci nfasi en market publicidad universidad cat lica nuestra se ora la asunci br futura licenciada en market universidad integraci la rica br eterna curiosa autodidacta puedo fueron suprimido su vocabulario br hiperactiva divagadora tiempo completo fan del terer el cello rock
p1797
sg14
Vcommun manag en tigo sport
p1798
sg16
(lp1799
Vrede social
p1800
aVpublicidad
p1801
aVcomunicacion market
p1802
aVmarket digit
p1803
aVmercadotecnia
p1804
aVmicrosoft offic
p1805
aVpublicidad en internet
p1806
aVespa ol
p1807
aVmercadotecnia en medio social
p1808
aVrelacion blica
p1809
aVgesti comunitaria
p1810
aVcommun manag
p1811
aVmarket por correo electr nico
p1812
aVadministraci y direcci empresa
p1813
aVestrategia mercadotecnia
p1814
aVradiocomunicaci n
p1815
aVredacci period stica
p1816
aVdigit market
p1817
aVspanish
p1818
aVmarket
p1819
aVadvertis
p1820
aVonlin advertis
p1821
aVcorrecci contenido web
p1822
aVinvestigaci y recopilaci hist rica institucion
p1823
aVencuestadora
p1824
aVtelemarket
p1825
aVemail market
p1826
asg60
(lp1827
sg84
Vmarket advertis
p1828
sg86
(lp1829
Vventa seguro previsi
p1830
asg93
(lp1831
Vcomunicadora directora pressencia mu vete publicidad vil
p1832
aVjefe canal digital en visi banco c
p1833
aVbrand manag citi market market publicidad comunicaci
p1834
aVgerent market en zavidoro corpor nike
p1835
aVl der proyecto web analista sistema desarrollador
p1836
aVconsult end develop
p1837
aVanalista recurso humano en sumidenso paraguay
p1838
aVencargada evento publicidad en salemma retail
p1839
aVconsultora
p1840
aVgerent gesti persona en financiera paraguayo japonesa c
p1841
asg105
(lp1842
Vformaci en ciencia la comunicaci n
p1843
aVmarket publicidad inter en nueva tecnolog
p1844
aVrede social
p1845
aVestrategia fidelizaci n
p1846
aVstoryl gificaci
p1847
asg117
(lp1848
Vuniversidad integraci la rica
p1849
aVuniversidad integraci la rica
p1850
aVuniversidad catolica nuestra se ora la asuncion
p1851
aVcentro capacitaci y cultura
p1852
assg123
(dp1853
g125
(lp1854
Vluitil mi vido hermoso miss guy
p1855
ag268
asg128
Vperjudiqu circo_onlin puntopyia biedermannpubl denidepi pressenciacom ahora tigosportspi tbi quiero mi tulo
p1856
ssa(dp1857
g2
Vmirko jovovi updat hi cover photo sharemirko jovovi updat hi cover photo sharemirko jovovi updat hi cover photo share marko borozan like mirko jovovi updat hi cover photo edit ispr jednog marketa je prije dva dana po ovoj zimi na hladnom betonu sjedio djeak beskunik na paretu kartona staroj pohabanoj jakni na minusu sjedi sa psom krilu meusobno pokuavajui da se ugriju potom je uslijedila scena koja je povratila vjeru ovjenost gladan djeak je iz depa izvadio bananicu polovinu pojeo drugu polovinu dao svom etvorononom prijatelju podijelio je jednu bananicu koju je imao kod sebe ta dalj da kaem najprij su spremni da daju oni koji malo imaju ili nemaju nita share peopl like sharesmirko jovovi updat hi cover photo sharemirko jovovi updat hi cover photo sharemirko jovovi updat hi cover photo share marko borozan like mirko jovovi updat hi cover photo edit ispr jednog marketa je prije dva dana po ovoj zimi na hladnom betonu sjedio djeak beskunik na paretu kartona staroj pohabanoj jakni na minusu sjedi sa psom krilu meusobno pokuavajui da se ugriju potom je uslijedila scena koja je povratila vjeru ovjenost gladan djeak je iz depa izvadio bananicu polovinu pojeo drugu polovinu dao svom etvorononom prijatelju podijelio je jednu bananicu koju je imao kod sebe ta dalj da kaem najprij su spremni da daju oni koji malo imaju ili nemaju nita share peopl like sharesmirko jovovi updat hi cover photo sharemirko jovovi updat hi cover photo share
p1858
sg4
(dp1859
g6
(lp1860
Vscienc
p1861
asg12
g268
sg14
Vengin web develop owner owner digitcom infocom o
p1862
sg16
(lp1863
Vphp
p1864
aVweb develo
p1865
aVhtml
p1866
aVjavascript
p1867
aVmysql
p1868
aVprogrm
p1869
aVxml
p1870
aVweb design
p1871
aVwordpress
p1872
aVjoomla
p1873
aVcpanel
p1874
aVnetwork secur
p1875
aVinform secur
p1876
aVsecur
p1877
aVnetwork administr
p1878
aVactiv directori
p1879
aVwindow server
p1880
asg60
(lp1881
sg84
Vinform technolog servic
p1882
sg86
(lp1883
sg93
(lp1884
Vmanag director montora softwar
p1885
aVowner zomax doo
p1886
aVreal estat
p1887
aVmarket pr manag
p1888
aVresourc pr market strategist look new opportun bay kotor
p1889
aVpekar primat
p1890
aVsale owner
p1891
aVexecut board member associ montenegrin manag
p1892
aVmanag privat compani
p1893
aVcomptabl bancair
p1894
asg105
(lp1895
sg117
(lp1896
Vuniverzitet crne gore
p1897
assg123
(dp1898
g125
(lp1899
sg128
Vowner owner digitcom infocom o http http http x0yqutyeyc
p1900
ssa(dp1901
g2
Vnathan hadsal chang hi profil pictur comment like share peopl like remov judi seiler ahhh cute coupl like remov rita maria duonni belli bellise translat like remov veronica kleckner beauti coupl like remov phil ackerli beauti right miss ya here like nathan hadsal chang hi profil pictur comment like share peopl like remov melodi jone bless easter like remov linda bilton sweet pictur love april likenathan hadsal chang hi profil pictur comment like share peopl like remov pat koehler nathan nice pic march like remov fran jone got hair cut look great march like remov barbara mardel great pictur march like remov nathan hadsal thank teresa took smile emoticon march like hadsal teresa hadsal edit thought share day box pack like montessori mom thank elliott record time laps watch later share like share peopl like share remov mari thoma nathan stay one area your wife travel getter lol fun watch congrat all are well januari like remov kimberli huff fun januari like remov daniel gilli beer did drink fast gone flash wink emoticon februari likenathan hadsal updat hi cover photo like like sharenathan hadsal chang hi profil pictur edit ye babi lb smile emoticon goat previous thought comment like share peopl like view more comment remov nathan hadsal chet sheep januari like remov laci rene stephen awe sweet pictur where wa hahah know hous januari likenathan hadsal chang hi profil pictur comment like share peopl like remov pat koehler nathan nice pic march like remov fran jone got hair cut look great march like remov barbara mardel great pictur march like remov nathan hadsal thank teresa took smile emoticon march like hadsal teresa hadsal edit thought share day box pack like montessori mom thank elliott record time laps watch later share like share peopl like share remov mari thoma nathan stay one area your wife travel getter lol fun watch congrat all are well januari like remov kimberli huff fun januari like remov daniel gilli beer did drink fast gone flash wink emoticon februari likenathan hadsal updat hi cover photo like like sharenathan hadsal chang hi profil pictur edit ye babi lb smile emoticon goat previous thought comment like share peopl like view more comment remov nathan hadsal chet sheep januari like remov laci rene stephen awe sweet pictur where wa hahah know hous januari like
p1902
sg4
(dp1903
g6
(lp1904
sg12
Vdynic speaker thought leader influenc uniqu blend busi educ technolog acumen br br consult recogn expert leadership develo commun involv sever success startup project organiz improv initi br br technolog savvi span graphic design progrm well seo strategi abil drive enterpris level solut innov area expertis includ br br leadership develo mentor coach public speak br strateg plan curriculum design market br client relat profession ethic project manag br br br your compani train more engag br your compani cultur just poster wall br leadership develop all level your organ br feel have more profession success person fulfil br br br connect linkedin nathan sofmind com lion idk
p1905
sg14
Vpresid ceo
p1906
sg16
(lp1907
Vleadership develo
p1908
aVpublic speak
p1909
aVfundrais
p1910
aVstrateg plan
p1911
aVcoach
p1912
aVcorpor event
p1913
aVtrain
p1914
aVentertain
p1915
aVnonprofit
p1916
aVeduc leadership
p1917
aVcharact build
p1918
aVsocial media
p1919
aVemce
p1920
aVphilosophi
p1921
aVmarket strategi
p1922
aVproblem solv
p1923
aVteach
p1924
aVprogrm
p1925
aVproject coordin
p1926
aVweb design
p1927
aVmanag
p1928
aVstart
p1929
aVprogr manag
p1930
aVnetwork secur
p1931
aVbusi develo
p1932
aVte build
p1933
aVpublic relat
p1934
aVstaff develo
p1935
aVperson develo
p1936
aVbodi languag
p1937
aVcross function te leadership
p1938
aVproject plan
p1939
aVproject manag
p1940
aVnetwork
p1941
aVanalysi
p1942
aVmotiv speak
p1943
aVhypnosi
p1944
aVhuman resourc
p1945
aVentrepreneurship
p1946
aVdatabas
p1947
aVseo
p1948
aVorganiz effect
p1949
aVorganiz develo
p1950
aVexecut coach
p1951
aVconsult
p1952
aVmarket
p1953
asg60
(lp1954
sg84
Vretail
p1955
sg86
(lp1956
Vnathan bootstrap montessori mom small ount fund profit compani month current montessori mom provid educ curriculum materi school parent world wide
p1957
aVbest way touch email nathan sofmind com
p1958
asg93
(lp1959
Vbusi develo solut architect stratuscor
p1960
aVowner
p1961
aVvice presid owner brien restaur
p1962
aVsaa craftsman cto throw boulder
p1963
aVpresid founder technolog
p1964
aVbeverag consum packag good profession
p1965
aVvice presid digit strategi defin media group inc
p1966
aVassist vice presid market research manag voya invest manag
p1967
aVceo upper right leadership
p1968
aVkathi low experienc freelanc copywrit copi editor proofread advertis market pr
p1969
asg105
(lp1970
sg117
(lp1971
ssg123
(dp1972
g125
(lp1973
Vbest well there littl news wfl walkforlif
p1974
aVtwitter stop walkforlif tag believ wfl sfchronicl ktvu usatoday cnn fox
p1975
aVrt leadtoday cool random fact one pound tea make cup beverag
p1976
aVrt brucevh there nobl superior your fellow men true nobil superior your former self ernest hemingway
p1977
aVwhi think platform design lack user
p1978
aVrt valaafshar are te work are te trust respect care other
p1979
aVrt ldshpdynic thing act all world were watch thoma jefferson leadership busi courag
p1980
aVrt entreleadership major your te money isn chief motiv want sens accomplish job well done
p1981
aVrt onli those dare fail greatli ever achiev greatli robert franci kennedi
p1982
aVrt terry_k there are thousand excus failur never good reason mark twain
p1983
aVrt keithclaridg are will risk unusu will have settl ordinari jim rohn
p1984
aVrt donhollar happi never mean problem free mean choos lead your dre goal your problem
p1985
aVlavaryoung bet
p1986
aVrt ptarkkonen let interfer john wooden quot
p1987
aVrt ptarkkonen function leadership produc more leader more follow ralph nader
p1988
aVcahalqcum sp make buck twitter real
p1989
aVrt lalitbhojwani beauti thing setback introduc strength robin sharma quot
p1990
aVleadtoday even far there more uncommon common sens
p1991
aVrt leadtoday live world where common sens more uncommon everyday quot
p1992
aVrt managersdiari have think whi think big donald trump busi leadership
p1993
aVrt ijm educ power weapon use chang world nelsonmandela
p1994
aVrt make mistak john wooden
p1995
aVrt philosophy_mus hardest advic follow your
p1996
aVhey brucevh problem
p1997
aVrt leaderquot spend day cours spend live ann dillard
p1998
aVrt stanceconst more man valu man success albert einstien
p1999
aVjonacuff comcastcar just got comcast spent hour phone error fix bill veri bad impress
p2000
aVrt leaderquot take time succeed success mere natur reward take time well joseph ross
p2001
aVrt philosophy_mus onli borrow time will eventu forget all
p2002
aVrt laserold great quot creat your destini will have your fate inflict willi irwin thompson
p2003
aVleadershipfreak love
p2004
aVtoddbnielsen leadrshpadvisor great articl aze simpl easi build great busi
p2005
aVdreckbaerfrau thank articl funni content lowest list
p2006
aVhey guy love new websit
p2007
asg128
Vhelp corpor nonprofit creat strong organ leadership develo specialist keynot speaker coach entrepreneur realist idealist
p2008
ssa(dp2009
g2
Vangeliqu delloma juli elit daili creativ intellig intellig isnt creativ relat are good problem solv like math will call intellig are good creativ there will just say nice hobbi whi better creativ brain intellig one overnight world longer feel intellig rather creativ elitedaili com like like share peopl like angeliqu delloma ad new photo album cebu bohol vacat like like share peopl like
p2010
sg4
(dp2011
g6
(lp2012
Vmarket advertis
p2013
aVmarket advertis
p2014
asg12
Vbr good day br m angeliqu delloma recent graduat la sall univers dasmari cours market advertis manag creativ observ risk taker dedic ope mind person usual thing differ way purpos valu life like jigsaw puzzl just have collect all your piec start build
p2015
sg14
Vmaxim skill knowledg work
p2016
sg16
(lp2017
Vadvertis
p2018
aVgraphic design
p2019
aVmarket commun
p2020
aVdigit market
p2021
aVmicrosoft excel
p2022
aVsocial media market
p2023
aVpowerpoint
p2024
aVresearch
p2025
aVsocial media
p2026
asg60
(lp2027
sg84
Vmarket advertis
p2028
sg86
(lp2029
Vcontact http silverhand
p2030
asg93
(lp2031
Vfresh graduat la sall univers dasmari
p2032
aVbank profession
p2033
aVentrepreneur
p2034
aVfresh graduat assumpt colleg san lorenzo
p2035
aVba commun miri colleg batch 2015
p2036
aVstudent la sall univers dasmari
p2037
aVaccount specialist san miguel corpor
p2038
aVgraduat ab develo studi la sall univers dasmarina
p2039
aVmanag traine
p2040
aVmarket traine coca cola femsa
p2041
asg105
(lp2042
Vgraphic design
p2043
aVchess
p2044
aVphotographi
p2045
aVpaint
p2046
aVdraw
p2047
aVcinematographi
p2048
aVanim
p2049
aVtravel
p2050
aVcommun advertis
p2051
asg117
(lp2052
Vla sall univers dasmarina
p2053
aVla sall univers dasmarina
p2054
aVdela sall univers darina
p2055
assg123
(dp2056
g125
(lp2057
Vowanasmil gusto ko rin yan special surgeon
p2058
aVkwinicastro relat
p2059
aVbaket
p2060
asg128
Vstudent live thought
p2061
ssa.