(lp0
V0
p1
aV01
p2
aV1
p3
aV1080p
p4
aV13
p5
aV17
p6
aV18
p7
aV1st
p8
aV2
p9
aV20
p10
aV2006
p11
aV2010
p12
aV21
p13
aV2178d655
p14
aV23
p15
aV26
p16
aV27
p17
aV29
p18
aV2mar
p19
aV2pi
p20
aV3
p21
aV365daysofgr
p22
aV37
p23
aV4s
p24
aV5
p25
aV500
p26
aV62
p27
aV64g
p28
aV9
p29
aV90
p30
aV__
p31
aV___
p32
aV_________
p33
aVa23
p34
aVaa
p35
aVaaa
p36
aVaaargh
p37
aVaai
p38
aVaan
p39
aVaanbied
p40
aVaanbod
p41
aVaangekondigd
p42
aVaantal
p43
aVaantikken
p44
aVaapl
p45
aVab
p46
aVabaikan
p47
aVabandon
p48
aVabandonado
p49
aVabba
p50
aVabbatt
p51
aVabbia
p52
aVabbrevi
p53
aVabc
p54
aVabia
p55
aVabil
p56
aVabl
p57
aVabonnez
p58
aVabra
p59
aVabrazo
p60
aVabren
p61
aVabri
p62
aVabro
p63
aVabruma
p64
aVabsolut
p65
aVabsoluto
p66
aVabstract
p67
aVabt
p68
aVaburrido
p69
aVaburriiiidooo
p70
aVac
p71
aVacab
p72
aVacaba
p73
aVacaban
p74
aVacabar
p75
aVacabo
p76
aVacademi
p77
aVacaso
p78
aVacc
p79
aVacceler
p80
aVaccent
p81
aVaccentur
p82
aVaccept
p83
aVaccess
p84
aVaccessibilit
p85
aVaccidentalment
p86
aVaccompani
p87
aVaccord
p88
aVaccount
p89
aVacct
p90
aVaccu
p91
aVaccuraci
p92
aVacelerado
p93
aVacervo
p94
aVach
p95
aVacha
p96
aVachterhoed
p97
aVacm
p98
aVacompanhando
p99
aVacquir
p100
aVacquisit
p101
aVacronym
p102
aVact
p103
aVaction
p104
aVactiv
p105
aVactivo
p106
aVactual
p107
aVactualit
p108
aVactualiza
p109
aVactuel
p110
aVacuerdes
p111
aVad
p112
aVadasia
p113
aVadat
p114
aVadcent
p115
aVadd
p116
aVaddict
p117
aVaddit
p118
aVaddress
p119
aVadem
p120
aVadiccion
p121
aVadictivo
p122
aVadio
p123
aVadministr
p124
aVadministrador
p125
aVadmir
p126
aVadmit
p127
aVadob
p128
aVadomani
p129
aVadopt
p130
aVador
p131
aVadoro
p132
aVadquirido
p133
aVadquisici
p134
aVadsens
p135
aVadt
p136
aVadva
p137
aVadvanc
p138
aVadvantag
p139
aVadvertis
p140
aVadvisor
p141
aVadweek
p142
aVadword
p143
aVae
p144
aVaffair
p145
aVaffich
p146
aVaffichag
p147
aVafford
p148
aVafgeven
p149
aVafin
p150
aVafortunado
p151
aVafrica
p152
aVafsaan
p153
aVafspraak
p154
aVafter
p155
aVafterthought
p156
aVag
p157
aVage
p158
aVagenc
p159
aVagenda
p160
aVaggiustento
p161
aVaggress
p162
aVagitado
p163
aVago
p164
aVagora
p165
aVagradecido
p166
aVagradecimento
p167
aVagre
p168
aVagrega
p169
aVagregar
p170
aVaguant
p171
aVah
p172
aVahaaa
p173
aVahc
p174
aVahead
p175
aVahh
p176
aVahhahahaha
p177
aVahhhh
p178
aVahhhhh
p179
aVahora
p180
aVahorita
p181
aVahoritaa
p182
aVai
p183
aVaid
p184
aVaiii
p185
aVaim
p186
aVain
p187
aVainda
p188
aVaint
p189
aVair
p190
aVairdrop
p191
aVairport
p192
aVaja
p193
aVajajaja
p194
aVajeitei
p195
aVajildavna
p196
aVajnabi
p197
aVajout
p198
aVajuda
p199
aVajust
p200
aVak
p201
aVaka
p202
aVakan
p203
aVaki
p204
aVakii
p205
aVakita
p206
aVaktion
p207
aVala
p208
aValabado
p209
aValaluya
p210
aValarm
p211
aValaska
p212
aValbatross
p213
aValbo
p214
aValbum
p215
aValchemi
p216
aValcohol
p217
aValcool
p218
aValegro
p219
aValejado
p220
aValert
p221
aValg
p222
aValga
p223
aValgeria
p224
aValgo
p225
aValgod
p226
aValgorithm
p227
aValguien
p228
aValgun
p229
aValguna
p230
aValguno
p231
aVali
p232
aValittl
p233
aVall
p234
aValleg
p235
aValli
p236
aVallow
p237
aVallt
p238
aVallthingsd
p239
aValltogeth
p240
aValmaceniento
p241
aValmad
p242
aValmeno
p243
aValongsid
p244
aValreadi
p245
aValrit
p246
aValtent
p247
aValtern
p248
aValternativa
p249
aValthan
p250
aValtijd
p251
aValto
p252
aVana
p253
aVanaa
p254
aVanak
p255
aVanalisi
p256
aVanalista
p257
aVanalysi
p258
aVanalyst
p259
aVanalyt
p260
aVanatusi
p261
aVanda
p262
aVanddroi
p263
aVandi
p264
aVandroid
p265
aVandroid4
p266
aVandroid40
p267
aVandroid_ar
p268
aVandroidb
p269
aVandroidicecr
p270
aVandroidicecresandwich
p271
aVandroidjp
p272
aVandroidv
p273
aVandroidvzla
p274
aVang
p275
aVangel
p276
aVangri
p277
aVanha
p278
aVani
p279
aVaniversario
p280
aVanja
p281
aVankor
p282
aVann
p283
aVannewil
p284
aVanni
p285
aVanniversari
p286
aVannonc
p287
aVannot
p288
aVannounc
p289
aVannoy
p290
aVanoquesoci
p291
aVanschauen
p292
aVansl
p293
aVanswer
p294
aVant
p295
aVanti
p296
aVanticip
p297
aVantiguo
p298
aVantitrust
p299
aVantiviru
p300
aVantonio
p301
aVanuncia
p302
aVanunciado
p303
aVanymor
p304
aVao
p305
aVaol
p306
aVaosp
p307
aVap
p308
aVapa
p309
aVaparato
p310
aVaparec
p311
aVapareceu
p312
aVaparecist
p313
aVapart
p314
aVapena
p315
aVaper
p316
aVapesar
p317
aVapi
p318
aVapit
p319
aVaplicaci
p320
aVaplicacion
p321
aVaplicativo
p322
aVapollo
p323
aVapolog
p324
aVapp
p325
aVappar
p326
aVappareil
p327
aVappartienn
p328
aVappeal
p329
aVappear
p330
aVappen
p331
aVappena
p332
aVappl
p333
aVapplecar
p334
aVapplecor
p335
aVappleid
p336
aVapplemac
p337
aVapplesearch
p338
aVapplestock
p339
aVapplestor
p340
aVappletel
p341
aVappleweblog
p342
aVappli
p343
aVapplic
p344
aVappoint
p345
aVappr
p346
aVappreci
p347
aVapproach
p348
aVapproxim
p349
aVappsens
p350
aVappstor
p351
aVappt
p352
aVaprend
p353
aVaprendera
p354
aVaprendi
p355
aVapron
p356
aVapt
p357
aVapunta
p358
aVaqq
p359
aVaqu
p360
aVaquel
p361
aVaqui
p362
aVara
p363
aVarac
p364
aVaray
p365
aVarbitrari
p366
aVarc
p367
aVarchitectur
p368
aVare
p369
aVarea
p370
aVaren
p371
aVargentina
p372
aVargument
p373
aVarial
p374
aVarip
p375
aVarkadin
p376
aVarkh
p377
aVarm
p378
aVarr
p379
aVarrazando
p380
aVarreglo
p381
aVarriv
p382
aVarrog
p383
aVart
p384
aVarticl
p385
aVarticulo
p386
aVartist
p387
aVartista
p388
aVasab
p389
aVasap
p390
aVasc
p391
aVasi
p392
aVasia
p393
aVasiaclassifiedtoday
p394
aVasiad
p395
aVasian
p396
aVask
p397
aVasp
p398
aVaspenibiz
p399
aVaspetta
p400
aVaspetto
p401
aVass
p402
aVassess
p403
aVasset
p404
aVassim
p405
aVassist
p406
aVassistindo
p407
aVassoci
p408
aVasta
p409
aVastound
p410
aVatalho
p411
aVataqu
p412
aVate
p413
aVatir
p414
aVatp
p415
aVatrum
p416
aVatt
p417
aVattack
p418
aVattend
p419
aVattent
p420
aVattribut
p421
aVatualiza
p422
aVatualizar
p423
aVaturehour
p424
aVau
p425
aVauch
p426
aVaudio
p427
aVauf
p428
aVaugnl
p429
aVaugust
p430
aVaujourd
p431
aVaun
p432
aVaunqu
p433
aVaussi
p434
aVaustin
p435
aVauthor
p436
aVauthoris
p437
aVauto
p438
aVautocomplet
p439
aVautofollow
p440
aVautom
p441
aVautomat
p442
aVautopilot
p443
aVautosavesuck
p444
aVautr
p445
aVaux
p446
aVav
p447
aVavail
p448
aVavait
p449
aVaval
p450
aVavanad
p451
aVavandonado
p452
aVavanzada
p453
aVavatar
p454
aVave
p455
aVavec
p456
aVavenu
p457
aVavez
p458
aVavi
p459
aVaviiertooo
p460
aVavisar
p461
aVavoid
p462
aVavoir
p463
aVavtar
p464
aVavtweep
p465
aVavvio
p466
aVaw
p467
aVawait
p468
aVaway
p469
aVawesom
p470
aVawkward
p471
aVawwwn
p472
aVax
p473
aVaye
p474
aVayud
p475
aVayyee
p476
aVazay
p477
aVaze
p478
aVazon
p479
aVazul
p480
aVazur
p481
aVb
p482
aVba
p483
aVbabe
p484
aVbabi
p485
aVbaboso
p486
aVbabydaddydra
p487
aVbabymadra
p488
aVbacano
p489
aVbackground
p490
aVbacksid
p491
aVbackup
p492
aVbad
p493
aVbadg
p494
aVbag
p495
aVbagi
p496
aVbah
p497
aVbahhh
p498
aVbaja
p499
aVbake
p500
aVball
p501
aVballmer
p502
aVballoon
p503
aVbalmer
p504
aVban
p505
aVbancar
p506
aVbanda
p507
aVbandara
p508
aVbando
p509
aVbandwidth
p510
aVbangalor
p511
aVbani
p512
aVbank
p513
aVbar
p514
aVbarex
p515
aVbarg
p516
aVbargain
p517
aVbarn
p518
aVbarom
p519
aVbaromet
p520
aVbarra
p521
aVbarron
p522
aVbaru
p523
aVbasada
p524
aVbasado
p525
aVbase
p526
aVbasedenegocio
p527
aVbasi
p528
aVbasic
p529
aVbasta
p530
aVbastant
p531
aVbastard
p532
aVbater
p533
aVbatman
p534
aVbatteri
p535
aVbattl
p536
aVbay
p537
aVbb
p538
aVbbi
p539
aVbbm
p540
aVbc
p541
aVbear
p542
aVbeat
p543
aVbeatl
p544
aVbeau
p545
aVbeauti
p546
aVbecki
p547
aVbed
p548
aVbedankt
p549
aVbedr
p550
aVbedrijfsprofiel
p551
aVbedrijven
p552
aVbedtim
p553
aVbee
p554
aVbeeem
p555
aVbeef
p556
aVbeelin
p557
aVbeetj
p558
aVbefor
p559
aVbegan
p560
aVbegin
p561
aVbei
p562
aVbeiden
p563
aVbeim
p564
aVbein
p565
aVbejewel
p566
aVbekend
p567
aVbeleza
p568
aVbeliebig
p569
aVbeliev
p570
aVbell
p571
aVbellen
p572
aVbelong
p573
aVbelt
p574
aVbem
p575
aVben
p576
aVbenchmark
p577
aVbendicion
p578
aVbendiiga
p579
aVbendito
p580
aVbendorf
p581
aVbenefici
p582
aVbenefit
p583
aVbenieuwd
p584
aVbenissimo
p585
aVber
p586
aVberada
p587
aVberal
p588
aVbercol
p589
aVberfl
p590
aVberholt
p591
aVberlin
p592
aVberri
p593
aVbertemu
p594
aVbeschik
p595
aVbeschikbaar
p596
aVbesetzung
p597
aVbesser
p598
aVbest
p599
aVbestia
p600
aVbesturingssysteem
p601
aVbeta
p602
aVbeter
p603
aVbetriebssystem
p604
aVbetter
p605
aVbewar
p606
aVbezielend
p607
aVbff
p608
aVbg
p609
aVbi
p610
aVbibliographi
p611
aVbid
p612
aVbien
p613
aVbienvenia
p614
aVbienvenida
p615
aVbienvenido
p616
aVbietet
p617
aVbig
p618
aVbigappl
p619
aVbigdealdawson
p620
aVbiggest
p621
aVbigma
p622
aVbij
p623
aVbilgi
p624
aVbill
p625
aVbill_gat
p626
aVbillgat
p627
aVbillion
p628
aVbiltmor
p629
aVbind
p630
aVbing
p631
aVbipolar
p632
aVbird
p633
aVbirthday
p634
aVbishop
p635
aVbit
p636
aVbitch
p637
aVbitchslap
p638
aVbite
p639
aVbiz
p640
aVbizarr
p641
aVbizspark
p642
aVbj
p643
aVbjuss
p644
aVbl
p645
aVblack
p646
aVblackberri
p647
aVblackout
p648
aVblank
p649
aVblare
p650
aVblast
p651
aVblatant
p652
aVblave
p653
aVblaze
p654
aVblazer
p655
aVbldwin
p656
aVble
p657
aVbleibt
p658
aVbless
p659
aVblijk
p660
aVblik
p661
aVblir
p662
aVblob
p663
aVblock
p664
aVblog
p665
aVblogoma
p666
aVblood
p667
aVbloodi
p668
aVbloomb
p669
aVbloomberg
p670
aVbloqueando
p671
aVblow
p672
aVblown
p673
aVblue
p674
aVbluetooth
p675
aVblyala
p676
aVbmer
p677
aVbmt
p678
aVbno
p679
aVboa
p680
aVboaa
p681
aVboard
p682
aVboast
p683
aVbob
p684
aVboba
p685
aVbobeira
p686
aVbobharp
p687
aVbode
p688
aVbodi
p689
aVboe
p690
aVboer
p691
aVbogu
p692
aVbola
p693
aVbolber
p694
aVbolivia
p695
aVbologna
p696
aVbolsillo
p697
aVbom
p698
aVbon
p699
aVbonbano
p700
aVbond
p701
aVbong
p702
aVbonito
p703
aVbonjour
p704
aVbonsoir
p705
aVboo
p706
aVbooiiiii
p707
aVbook
p708
aVbookcas
p709
aVbookmark
p710
aVbookworm
p711
aVboost
p712
aVboot
p713
aVbooth
p714
aVbootload
p715
aVbora
p716
aVborder
p717
aVbore
p718
aVborrad
p719
aVborrarlo
p720
aVbort
p721
aVbosch
p722
aVboss
p723
aVbot
p724
aVbother
p725
aVboton
p726
aVbottleneck
p727
aVboug
p728
aVbought
p729
aVbounc
p730
aVbound
p731
aVbouquet
p732
aVbout
p733
aVboven
p734
aVbow
p735
aVbowl
p736
aVbox
p737
aVboy
p738
aVboycot
p739
aVbraill
p740
aVbrain
p741
aVbrand
p742
aVbranschen
p743
aVbrasil
p744
aVbreak
p745
aVbreakfast
p746
aVbreakingnew
p747
aVbrekend
p748
aVbreve
p749
aVbrick
p750
aVbrief
p751
aVbrillianc
p752
aVbrilliant
p753
aVbrin
p754
aVbring
p755
aVbrit
p756
aVbro
p757
aVbroadli
p758
aVbroda
p759
aVbroke
p760
aVbroken
p761
aVbromanc
p762
aVbromsolut
p763
aVbroo
p764
aVbrother
p765
aVbrought
p766
aVbrows
p767
aVbrowser
p768
aVbrowserwar
p769
aVbruis
p770
aVbs
p771
aVbsod
p772
aVbss
p773
aVbtw
p774
aVbu
p775
aVbuccan
p776
aVbud
p777
aVbuddi
p778
aVbuen
p779
aVbuena
p780
aVbuendia
p781
aVbueno
p782
aVbuenoh
p783
aVbuenooooo
p784
aVbuffalo
p785
aVbug
p786
aVbuild
p787
aVbuilt
p788
aVbuiltin
p789
aVbullet
p790
aVbulletin
p791
aVbulli
p792
aVbullmer
p793
aVbullshit
p794
aVbummer
p795
aVbump
p796
aVbunch
p797
aVbundl
p798
aVburi
p799
aVburn
p800
aVbusca
p801
aVbuscalo
p802
aVbusco
p803
aVbusi
p804
aVbusinessweek
p805
aVbutteri
p806
aVbutton
p807
aVbuy
p808
aVbuyin
p809
aVbuzz
p810
aVbuzzworthyenespa
p811
aVbuzzz
p812
aVbwana
p813
aVbye
p814
aVbyrdgan
p815
aVc
p816
aVca
p817
aVcaaargaaaaaa
p818
aVcabron
p819
aVcacca
p820
aVcacchio
p821
aVcach
p822
aVcacha
p823
aVcachando
p824
aVcada
p825
aVcade
p826
aVcagando
p827
aVcago
p828
aVcair
p829
aVcake
p830
aVcalendar
p831
aVcalendri
p832
aVcalifornia
p833
aVcall
p834
aVcalumo
p835
aVcanada
p836
aVcancer
p837
aVcandent
p838
aVcanergiemellon
p839
aVcanon
p840
aVcanta
p841
aVcantwealljustgetalong
p842
aVcap
p843
aVcapabl
p844
aVcapac
p845
aVcapacitaci
p846
aVcapit
p847
aVcaptur
p848
aVcar
p849
aVcara
p850
aVcaract
p851
aVcaracter
p852
aVcarada
p853
aVcarajadr
p854
aVcarba
p855
aVcard
p856
aVcare
p857
aVcareer
p858
aVcarnegi
p859
aVcarnegiemellon
p860
aVcarpeta
p861
aVcarrasco
p862
aVcarri
p863
aVcarrier
p864
aVcarta
p865
aVcasa
p866
aVcaschi
p867
aVcase
p868
aVcash
p869
aVcasi
p870
aVcaso
p871
aVcast
p872
aVcasualidad
p873
aVcatastroph
p874
aVcatch
p875
aVcatchin
p876
aVcatchment
p877
aVcategor
p878
aVcategori
p879
aVcaus
p880
aVcausando
p881
aVcausarl
p882
aVcaution
p883
aVcautiou
p884
aVcavi
p885
aVcbiado
p886
aVcbial
p887
aVcbiar
p888
aVcbie
p889
aVcc
p890
aVccna
p891
aVcd
p892
aVcdma
p893
aVce
p894
aVceel
p895
aVcej
p896
aVcel
p897
aVcela
p898
aVceleb
p899
aVcelebr
p900
aVcell
p901
aVcelular
p902
aVcelularrrrrrr
p903
aVcensorship
p904
aVcent
p905
aVcenter
p906
aVcentr
p907
aVcentral
p908
aVcentro
p909
aVcentrum
p910
aVcenturi
p911
aVceo
p912
aVcera
p913
aVceremoni
p914
aVceritanya
p915
aVcertain
p916
aVcertif
p917
aVcertifi
p918
aVcertificado
p919
aVcertificar
p920
aVcerulean
p921
aVcesspit
p922
aVcett
p923
aVcgt
p924
aVch
p925
aVchair
p926
aVchalleng
p927
aVchanc
p928
aVchang
p929
aVchanger
p930
aVchao
p931
aVchapa
p932
aVchaqu
p933
aVcharact
p934
aVcharem
p935
aVcharg
p936
aVcharger
p937
aVchariti
p938
aVchart
p939
aVchase
p940
aVchat
p941
aVchaton
p942
aVche
p943
aVcheap
p944
aVcheat
p945
aVcheatedabit
p946
aVchecar
p947
aVcheck
p948
aVcheckbox
p949
aVcheckup
p950
aVcheer
p951
aVcheltenh
p952
aVchen
p953
aVchequ
p954
aVcher
p955
aVchickz
p956
aVchief
p957
aVchild
p958
aVchill
p959
aVchina
p960
aVchipset
p961
aVchismeen
p962
aVchist
p963
aVchk
p964
aVchoic
p965
aVchoos
p966
aVchoosi
p967
aVchose
p968
aVchp
p969
aVchri
p970
aVchristina
p971
aVchristma
p972
aVchrome
p973
aVchste
p974
aVchu
p975
aVchucha
p976
aVchysta
p977
aVci
p978
aVcicip
p979
aVciddi
p980
aVcielo
p981
aVcient
p982
aVcientifico
p983
aVcierro
p984
aVcierto
p985
aVciloka
p986
aVcime
p987
aVcinco
p988
aVcinguettii
p989
aVcircl
p990
aVcircumst
p991
aVcisco
p992
aVciti
p993
aVcitigroup
p994
aVcitrix
p995
aVcker
p996
aVckt
p997
aVcktritt
p998
aVcl
p999
aVclaim
p1000
aVclair
p1001
aVclarenc
p1002
aVclase
p1003
aVclass
p1004
aVclassroom
p1005
aVclavier
p1006
aVcld
p1007
aVclean
p1008
aVclear
p1009
aVclick
p1010
aVclient
p1011
aVclienti
p1012
aVclock
p1013
aVclose
p1014
aVcloser
p1015
aVcloset
p1016
aVcloud
p1017
aVcloud_comput
p1018
aVcloudcomput
p1019
aVclown
p1020
aVclub
p1021
aVclue
p1022
aVcmg
p1023
aVcmo
p1024
aVcmswire
p1025
aVcnectara
p1026
aVcnet
p1027
aVcnt
p1028
aVcntestaaaa
p1029
aVcoach
p1030
aVcoat
p1031
aVcobra
p1032
aVcobrarm
p1033
aVcod
p1034
aVcode
p1035
aVcodec
p1036
aVcoden
p1037
aVcoffe
p1038
aVcoffer
p1039
aVcogita
p1040
aVcoincid
p1041
aVcoisa
p1042
aVcolapso
p1043
aVcolecci
p1044
aVcolin
p1045
aVcollabor
p1046
aVcolleagu
p1047
aVcollect
p1048
aVcolleg
p1049
aVcollega
p1050
aVcoloco
p1051
aVcoloquen
p1052
aVcolour
p1053
aVcolpa
p1054
aVcom
p1055
aVcombat
p1056
aVcombien
p1057
aVcombo
p1058
aVcome
p1059
aVcomen
p1060
aVcomfortabel
p1061
aVcominciato
p1062
aVcomm
p1063
aVcommand
p1064
aVcomment
p1065
aVcommerc
p1066
aVcommerci
p1067
aVcommit
p1068
aVcommod
p1069
aVcommon
p1070
aVcommun
p1071
aVcommunaut
p1072
aVcomo
p1073
aVcomp
p1074
aVcompani
p1075
aVcompanion
p1076
aVcompar
p1077
aVcomparen
p1078
aVcomparison
p1079
aVcompart
p1080
aVcompartilhentovia
p1081
aVcompartimo
p1082
aVcompartir
p1083
aVcompat
p1084
aVcompel
p1085
aVcomper
p1086
aVcompet
p1087
aVcompetencia
p1088
aVcompetit
p1089
aVcompetitor
p1090
aVcompil
p1091
aVcompl
p1092
aVcomplain
p1093
aVcomplaint
p1094
aVcomplet
p1095
aVcompleta
p1096
aVcomplianc
p1097
aVcomplic
p1098
aVcompliment
p1099
aVcomplimenti
p1100
aVcompo
p1101
aVcompon
p1102
aVcompos
p1103
aVcompr
p1104
aVcomprado
p1105
aVcomprar
p1106
aVcompressor
p1107
aVcompri
p1108
aVcomputador
p1109
aVcompuu
p1110
aVcomun
p1111
aVconcept
p1112
aVconcer
p1113
aVconcern
p1114
aVconclud
p1115
aVconcurr
p1116
aVcondit
p1117
aVcondom
p1118
aVconectado
p1119
aVconecto
p1120
aVconejo
p1121
aVconf
p1122
aVconfer
p1123
aVconferencecal
p1124
aVconfid
p1125
aVconfiesan
p1126
aVconfigur
p1127
aVconfirm
p1128
aVconfirma
p1129
aVconflict
p1130
aVconfus
p1131
aVconfusedbymytimelin
p1132
aVconfusin
p1133
aVcongelada
p1134
aVcongrat
p1135
aVcongratul
p1136
aVcongratweet
p1137
aVconna
p1138
aVconnect
p1139
aVconnector
p1140
aVconoc
p1141
aVconocido
p1142
aVconocimiento
p1143
aVconomiqu
p1144
aVconsid
p1145
aVconsigans
p1146
aVconsol
p1147
aVconsolid
p1148
aVconsomm
p1149
aVconst
p1150
aVconstantcontact
p1151
aVconstrain
p1152
aVconstruido
p1153
aVconsult
p1154
aVconsulta
p1155
aVconsultingwar
p1156
aVconsum
p1157
aVconsument
p1158
aVconsumo
p1159
aVcont
p1160
aVcontact
p1161
aVcontandom
p1162
aVcontato
p1163
aVcontattaci
p1164
aVcontend
p1165
aVcontenido
p1166
aVcontent
p1167
aVcontenu
p1168
aVcontinu
p1169
aVcontinua
p1170
aVcontinuum
p1171
aVcontra
p1172
aVcontraatacan
p1173
aVcontract
p1174
aVcontrol
p1175
aVcontrolar
p1176
aVconundrum
p1177
aVconvers
p1178
aVconvert
p1179
aVconveyor
p1180
aVconviert
p1181
aVconvinc
p1182
aVcool
p1183
aVcoolstorybro
p1184
aVcop
p1185
aVcope
p1186
aVcopi
p1187
aVcopia
p1188
aVcopiar
p1189
aVcopyright
p1190
aVcoraz
p1191
aVcord
p1192
aVcore
p1193
aVcoreapptech
p1194
aVcorna
p1195
aVcornelia
p1196
aVcorner
p1197
aVcorno
p1198
aVcorpor
p1199
aVcorporativo
p1200
aVcorr
p1201
aVcorrect
p1202
aVcorrecteur
p1203
aVcorreo
p1204
aVcorrompido
p1205
aVcort
p1206
aVcortex
p1207
aVcosa
p1208
aVcoso
p1209
aVcost
p1210
aVcostolo
p1211
aVcostumbr
p1212
aVcouch
p1213
aVcouldn
p1214
aVcount
p1215
aVcounter
p1216
aVcoup
p1217
aVcoupl
p1218
aVcours
p1219
aVcoursey
p1220
aVcourt
p1221
aVcourtesi
p1222
aVcover
p1223
aVcowork
p1224
aVcoz
p1225
aVcp
p1226
aVcpa
p1227
aVcpaign
p1228
aVcper
p1229
aVcpg
p1230
aVcpqd
p1231
aVcpu
p1232
aVcrack
p1233
aVcrackberri
p1234
aVcran
p1235
aVcranberri
p1236
aVcranial
p1237
aVcrap
p1238
aVcrash
p1239
aVcrave
p1240
aVcrawl
p1241
aVcrazi
p1242
aVcre
p1243
aVcrea
p1244
aVcrear
p1245
aVcreat
p1246
aVcreativ
p1247
aVcreato
p1248
aVcreator
p1249
aVcrece
p1250
aVcredenti
p1251
aVcredit
p1252
aVcreditbl
p1253
aVcredito
p1254
aVcreen
p1255
aVcreert
p1256
aVcreo
p1257
aVcritic
p1258
aVcritica
p1259
aVcrm
p1260
aVcroi
p1261
aVcross
p1262
aVcrush
p1263
aVcrypt
p1264
aVcs
p1265
aVcsportsmn
p1266
aVct
p1267
aVctia
p1268
aVctil
p1269
aVctp
p1270
aVctr
p1271
aVctx
p1272
aVcu
p1273
aVcuaderno
p1274
aVcualquera
p1275
aVcualquier
p1276
aVcuando
p1277
aVcuano
p1278
aVcuanta
p1279
aVcuanto
p1280
aVcuenta
p1281
aVcuentalaleyenda
p1282
aVcuento
p1283
aVcula
p1284
aVculminando
p1285
aVculpa
p1286
aVcumpl
p1287
aVcumplen
p1288
aVcurat
p1289
aVcurrenc
p1290
aVcurrent
p1291
aVcurs
p1292
aVcurso
p1293
aVcursussen
p1294
aVcursusvoor
p1295
aVcustom
p1296
aVcustomerappreci
p1297
aVcustomerservic
p1298
aVcustserv
p1299
aVcut
p1300
aVcute
p1301
aVcuz
p1302
aVcyanogen
p1303
aVcyanogenmod
p1304
aVcyclon
p1305
aVcyst
p1306
aVczytaj
p1307
aVd
p1308
aVd2l
p1309
aVda
p1310
aVdaar
p1311
aVdaarme
p1312
aVdad
p1313
aVdada
p1314
aVdado
p1315
aVdaf
p1316
aVdag
p1317
aVdage
p1318
aVdaibosyu
p1319
aVdaili
p1320
aVdaimler
p1321
aVdaje
p1322
aVdal
p1323
aVdale
p1324
aVdalla
p1325
aVdan
p1326
aVdanc
p1327
aVdancecentr
p1328
aVdancer
p1329
aVdando
p1330
aVdank
p1331
aVdanneggiati
p1332
aVdar
p1333
aVdark
p1334
aVdarl
p1335
aVdars
p1336
aVdasneuearbeiten
p1337
aVdass
p1338
aVdat
p1339
aVdata
p1340
aVdatabas
p1341
aVdatalimiet
p1342
aVdate
p1343
aVdato
p1344
aVdaughter
p1345
aVdavi
p1346
aVdavid
p1347
aVdawn
p1348
aVday
p1349
aVday305
p1350
aVdaytimewdonna
p1351
aVdazu
p1352
aVdb
p1353
aVdd
p1354
aVddd
p1355
aVdead
p1356
aVdeaf
p1357
aVdeal
p1358
aVdealt
p1359
aVdear
p1360
aVdeath
p1361
aVdebat
p1362
aVdebe
p1363
aVdeberia
p1364
aVdebloqu
p1365
aVdebt
p1366
aVdebut
p1367
aVdec
p1368
aVdecad
p1369
aVdecid
p1370
aVdecir
p1371
aVdecirlo
p1372
aVdeclar
p1373
aVdeclarar
p1374
aVdeclin
p1375
aVdedic
p1376
aVdedo
p1377
aVdefault
p1378
aVdefecto
p1379
aVdefinit
p1380
aVdefinitivent
p1381
aVdefinitivn
p1382
aVdefraud
p1383
aVdegrassi
p1384
aVdegre
p1385
aVdeiixando
p1386
aVdeixa
p1387
aVdeixar
p1388
aVdeja
p1389
aVdejan
p1390
aVdejaron
p1391
aVdejart
p1392
aVdejast
p1393
aVdel
p1394
aVdelant
p1395
aVdelay
p1396
aVdelet
p1397
aVdelici
p1398
aVdelight
p1399
aVdeliv
p1400
aVdell
p1401
aVdem
p1402
aVdemain
p1403
aVdemasiado
p1404
aVdemo
p1405
aVdemonio
p1406
aVdemonstr
p1407
aVden
p1408
aVdenali
p1409
aVdengan
p1410
aVdenkt
p1411
aVdennisritchi
p1412
aVdenounc
p1413
aVdensiti
p1414
aVdentist
p1415
aVdepan
p1416
aVdepart
p1417
aVdepartento
p1418
aVdepend
p1419
aVdeploy
p1420
aVdepot
p1421
aVdepui
p1422
aVder
p1423
aVdernier
p1424
aVdesahoqar
p1425
aVdesarrolla
p1426
aVdesarrollador
p1427
aVdesarrollo
p1428
aVdesbloquear
p1429
aVdescansar
p1430
aVdescargada
p1431
aVdescargu
p1432
aVdesd
p1433
aVdesejo
p1434
aVdesign
p1435
aVdesir
p1436
aVdesktop
p1437
aVdesliga
p1438
aVdesligar
p1439
aVdespedindo
p1440
aVdespliega
p1441
aVdespu
p1442
aVdess
p1443
aVdestaqu
p1444
aVdestekledi
p1445
aVdestroy
p1446
aVdetal
p1447
aVdetelefoonvanbritt
p1448
aVdetermin
p1449
aVdetik
p1450
aVdett
p1451
aVdeu
p1452
aVdeux
p1453
aVdev
p1454
aVdevant
p1455
aVdevel
p1456
aVdevelo
p1457
aVdevelop
p1458
aVdevic
p1459
aVdevient
p1460
aVdevproblem
p1461
aVdevra
p1462
aVdevrai
p1463
aVdevreach
p1464
aVdewan
p1465
aVdeyen
p1466
aVdeze
p1467
aVdezz
p1468
aVdhilipsiva
p1469
aVdi
p1470
aVdia
p1471
aVdiario
p1472
aVdiarrh
p1473
aVdiaz
p1474
aVdic
p1475
aVdica
p1476
aVdice
p1477
aVdich
p1478
aVdicho
p1479
aVdick
p1480
aVdictat
p1481
aVdictionnair
p1482
aVdid
p1483
aVdidn
p1484
aVdidnt
p1485
aVdie
p1486
aVdiego
p1487
aVdien
p1488
aVdienstverlen
p1489
aVdieron
p1490
aVdieser
p1491
aVdiferencia
p1492
aVdiff
p1493
aVdiffer
p1494
aVdifficult
p1495
aVdifficulti
p1496
aVdificuldad
p1497
aVdiganm
p1498
aVdigiprof
p1499
aVdigit
p1500
aVdigital
p1501
aVdigitalstrategi
p1502
aVdigo
p1503
aVdiia
p1504
aVdiio
p1505
aVdiiqooo
p1506
aVdije
p1507
aVdijitald
p1508
aVdijo
p1509
aVdileatumentequedesc
p1510
aVdilo
p1511
aVdime
p1512
aVdingen
p1513
aVdinner
p1514
aVdio
p1515
aVdipset
p1516
aVdirect
p1517
aVdirector
p1518
aVdisabl
p1519
aVdisagre
p1520
aVdisappear
p1521
aVdisappoint
p1522
aVdiscontinu
p1523
aVdiscount
p1524
aVdiscour
p1525
aVdiscov
p1526
aVdisculp
p1527
aVdiscuss
p1528
aVdisfrut
p1529
aVdisguis
p1530
aVdish
p1531
aVdispensa
p1532
aVdisplay
p1533
aVdispo
p1534
aVdispon
p1535
aVdispos
p1536
aVdispositivo
p1537
aVdisrupt
p1538
aVdiss
p1539
aVdissent
p1540
aVdistra
p1541
aVdistribut
p1542
aVdit
p1543
aVdivertido
p1544
aVdivis
p1545
aVdiy
p1546
aVdlc
p1547
aVdm
p1548
aVdmo
p1549
aVdn
p1550
aVdnt
p1551
aVdoc
p1552
aVdocument
p1553
aVdodg
p1554
aVdoe
p1555
aVdoesn
p1556
aVdoesnt
p1557
aVdoet
p1558
aVdoin
p1559
aVdoj
p1560
aVdokunmatik
p1561
aVdollar
p1562
aVdomain
p1563
aVdomani
p1564
aVdomest
p1565
aVdominio
p1566
aVdommemensen
p1567
aVdonat
p1568
aVdond
p1569
aVdone
p1570
aVdonner
p1571
aVdont
p1572
aVdoom
p1573
aVdoor
p1574
aVdorado
p1575
aVdorga
p1576
aVdormi
p1577
aVdormir
p1578
aVdorrmi
p1579
aVdose
p1580
aVdossier
p1581
aVdostupan
p1582
aVdotnet
p1583
aVdotykowi
p1584
aVdoubl
p1585
aVdoubt
p1586
aVdouchebag
p1587
aVdoug
p1588
aVdough
p1589
aVdoughnut
p1590
aVdowngrad
p1591
aVdownload
p1592
aVdownsid
p1593
aVdownward
p1594
aVdoy
p1595
aVdr
p1596
aVdrain
p1597
aVdrake
p1598
aVdrawlin
p1599
aVdre
p1600
aVdrew
p1601
aVdrink
p1602
aVdriodrazr
p1603
aVdrive
p1604
aVdriver
p1605
aVdrm
p1606
aVdroid
p1607
aVdroidtweak
p1608
aVdrop
p1609
aVdropbox
p1610
aVdroptheknif
p1611
aVdrug
p1612
aVdruga
p1613
aVdrumrol
p1614
aVdsvelarm
p1615
aVdu
p1616
aVdubai
p1617
aVduda
p1618
aVdude
p1619
aVduet
p1620
aVduetenterpris
p1621
aVduhhhh
p1622
aVduim
p1623
aVduke
p1624
aVduli
p1625
aVdumb
p1626
aVdumbass
p1627
aVdummi
p1628
aVdump
p1629
aVdumt
p1630
aVdupe
p1631
aVduplic
p1632
aVdurant
p1633
aVdurch
p1634
aVdure
p1635
aVduri
p1636
aVdurtevragen
p1637
aVdust
p1638
aVduti
p1639
aVduuuuhhh
p1640
aVdwd100
p1641
aVdynic
p1642
aVe
p1643
aVear
p1644
aVearbud
p1645
aVearli
p1646
aVearn
p1647
aVearth
p1648
aVeasi
p1649
aVeasier
p1650
aVeast
p1651
aVeaster
p1652
aVebay
p1653
aVebaymobil
p1654
aVebook
p1655
aVecdl
p1656
aVecho
p1657
aVecht
p1658
aVeclips
p1659
aVecm
p1660
aVeco
p1661
aVecommerc
p1662
aVecon
p1663
aVeconom
p1664
aVecuador
p1665
aVed
p1666
aVedg
p1667
aVeditor
p1668
aVedu
p1669
aVedu11
p1670
aVeduc
p1671
aVeducaus
p1672
aVedycja
p1673
aVee
p1674
aVeedar
p1675
aVeen
p1676
aVeerst
p1677
aVeeu
p1678
aVeff
p1679
aVeffect
p1680
aVeffici
p1681
aVeffort
p1682
aVeffortless
p1683
aVefma
p1684
aVeft
p1685
aVegg
p1686
aVeh
p1687
aVeharmoni
p1688
aVehemalig
p1689
aVehhhh
p1690
aVeigenteksteerst
p1691
aVeigentlich
p1692
aVein
p1693
aVeinem
p1694
aVeinfachen
p1695
aVeingeloggt
p1696
aVeinzelnen
p1697
aVeita
p1698
aVeither
p1699
aVekran
p1700
aVekrana
p1701
aVel
p1702
aVela
p1703
aVelect
p1704
aVelectr
p1705
aVelectron
p1706
aVeleg
p1707
aVelelegido
p1708
aVelig
p1709
aVelit
p1710
aVeller
p1711
aVello
p1712
aVelop
p1713
aVem
p1714
aVemail
p1715
aVemb
p1716
aVemc
p1717
aVemerg
p1718
aVemoji
p1719
aVemoticon
p1720
aVemp
p1721
aVempez
p1722
aVempezando
p1723
aVemphas
p1724
aVemphasi
p1725
aVempieza
p1726
aVempiezan
p1727
aVempir
p1728
aVempleo
p1729
aVemploy
p1730
aVemploye
p1731
aVempolga
p1732
aVempower
p1733
aVemptythreat
p1734
aVemula
p1735
aVen
p1736
aVenabl
p1737
aVenaza
p1738
aVencanta
p1739
aVencontrado
p1740
aVencontrar
p1741
aVencor
p1742
aVencount
p1743
aVencrypt
p1744
aVencuentro
p1745
aVend
p1746
aVendast
p1747
aVendlich
p1748
aVenemi
p1749
aVenerg
p1750
aVenfin
p1751
aVengag
p1752
aVengin
p1753
aVenhanc
p1754
aVenhet
p1755
aVenig
p1756
aVenjekomttelaatmetjetoestel
p1757
aVenjoy
p1758
aVenlac
p1759
aVenlanc
p1760
aVenlighten
p1761
aVenn
p1762
aVenorm
p1763
aVent
p1764
aVentend
p1765
aVentendera
p1766
aVentendist
p1767
aVenter
p1768
aVenterpris
p1769
aVentertain
p1770
aVenthousiasm
p1771
aVentiendo
p1772
aVentir
p1773
aVenton
p1774
aVentonc
p1775
aVentr
p1776
aVentrar
p1777
aVentrepreneur
p1778
aVentrepris
p1779
aVentretenida
p1780
aVentro
p1781
aVentz
p1782
aVenvi
p1783
aVenvidia
p1784
aVenviron
p1785
aVenvuelto
p1786
aVepharma
p1787
aVepicfail
p1788
aVepicwin
p1789
aVepub
p1790
aVequal
p1791
aVequipo
p1792
aVequivoqu
p1793
aVer
p1794
aVera
p1795
aVerbij
p1796
aVere
p1797
aVerfolgsspur
p1798
aVerg
p1799
aVeri
p1800
aVeric
p1801
aVericson
p1802
aVericsson
p1803
aVerika
p1804
aVermosa
p1805
aVerneut
p1806
aVerp
p1807
aVerror
p1808
aVerstklassig
p1809
aVerweitert
p1810
aVes
p1811
aVescalabilidad
p1812
aVescap
p1813
aVescolha
p1814
aVescort
p1815
aVescrevendo
p1816
aVescrib
p1817
aVescriben
p1818
aVescribi
p1819
aVescribio
p1820
aVescribo
p1821
aVescucha
p1822
aVescuchado
p1823
aVese
p1824
aVeso
p1825
aVesoy
p1826
aVesp
p1827
aVespa
p1828
aVespeci
p1829
aVespecificacion
p1830
aVespefifiquen
p1831
aVespera
p1832
aVesperado
p1833
aVesperanza
p1834
aVespero
p1835
aVesqu
p1836
aVesqueciido
p1837
aVess
p1838
aVessa
p1839
aVessay
p1840
aVessenti
p1841
aVest
p1842
aVesta
p1843
aVestado
p1844
aVestar
p1845
aVestava
p1846
aVesto
p1847
aVestou
p1848
aVestoy
p1849
aVestudiar
p1850
aVestudio
p1851
aVet
p1852
aVeta
p1853
aVetha
p1854
aVethernet
p1855
aVethiopian
p1856
aVetr
p1857
aVetso
p1858
aVettu
p1859
aVeu
p1860
aVeuro
p1861
aVeurop
p1862
aVevaluati
p1863
aVevan
p1864
aVevangelist
p1865
aVeven
p1866
aVevent
p1867
aVevento
p1868
aVever
p1869
aVeveri
p1870
aVeverson
p1871
aVeverybodi
p1872
aVeveryday
p1873
aVeverytim
p1874
aVeverywher
p1875
aVevil
p1876
aVevo
p1877
aVevoluzion
p1878
aVevolv
p1879
aVevrop
p1880
aVex
p1881
aVexact
p1882
aVexcel
p1883
aVexcelent
p1884
aVexcept
p1885
aVexchang
p1886
aVexchg
p1887
aVexcit
p1888
aVexclaim
p1889
aVexclud
p1890
aVexcluir
p1891
aVexclus
p1892
aVexclusivo
p1893
aVexec
p1894
aVexecut
p1895
aVexen
p1896
aVexercis
p1897
aVexist
p1898
aVexistencial
p1899
aVexistir
p1900
aVexp
p1901
aVexpand
p1902
aVexpect
p1903
aVexpectaci
p1904
aVexpens
p1905
aVexpensivepaperweight
p1906
aVexperi
p1907
aVexperiencia
p1908
aVexperimento
p1909
aVexpert
p1910
aVexpl
p1911
aVexplain
p1912
aVexplica
p1913
aVexplicar
p1914
aVexplicarm
p1915
aVexpliqu
p1916
aVexplod
p1917
aVexplor
p1918
aVexpo
p1919
aVexpos
p1920
aVextend
p1921
aVextens
p1922
aVextent
p1923
aVextra
p1924
aVextran
p1925
aVextrem
p1926
aVey
p1927
aVeye
p1928
aVf
p1929
aVf8ball
p1930
aVfab
p1931
aVfabricant
p1932
aVface
p1933
aVfacebook
p1934
aVfacebookoff
p1935
aVfaceboook
p1936
aVfacial
p1937
aVfacialunlock
p1938
aVfact
p1939
aVfactor
p1940
aVfactori
p1941
aVfaculti
p1942
aVfad
p1943
aVfade
p1944
aVfail
p1945
aVfailstevejob
p1946
aVfailur
p1947
aVfair
p1948
aVfaisant
p1949
aVfait
p1950
aVfaith
p1951
aVfake
p1952
aVfala
p1953
aVfalar
p1954
aVfalen
p1955
aVfall
p1956
aVfalla
p1957
aVfallar
p1958
aVfalloir
p1959
aVfalta
p1960
aVfan
p1961
aVfanci
p1962
aVfar
p1963
aVfarha
p1964
aVfari
p1965
aVfarrel
p1966
aVfast
p1967
aVfat
p1968
aVfata
p1969
aVfato
p1970
aVfault
p1971
aVfav
p1972
aVfavor
p1973
aVfavorit
p1974
aVfavorito
p1975
aVfazendo
p1976
aVfazia
p1977
aVfb
p1978
aVfcbk
p1979
aVfcuck
p1980
aVfdp
p1981
aVfeat
p1982
aVfeatur
p1983
aVfed
p1984
aVfeed
p1985
aVfeedback
p1986
aVfeeel
p1987
aVfeel
p1988
aVfeet
p1989
aVfego
p1990
aVfehler
p1991
aVfeira
p1992
aVfelic
p1993
aVfelicitacion
p1994
aVfeliz
p1995
aVfell
p1996
aVfellow
p1997
aVfen
p1998
aVferranti
p1999
aVff
p2000
aVffnen
p2001
aVfi
p2002
aVfianc
p2003
aVficaa
p2004
aVficando
p2005
aVficar
p2006
aVfico
p2007
aVficou
p2008
aVfiction
p2009
aVfight
p2010
aVfigur
p2011
aVfiica
p2012
aVfijn
p2013
aVfika
p2014
aVfila
p2015
aVfile
p2016
aVfileserv
p2017
aVfili
p2018
aVfilia
p2019
aVfilm
p2020
aVfilter
p2021
aVfiltra
p2022
aVfin
p2023
aVfinal
p2024
aVfinalis
p2025
aVfinallycool
p2026
aVfinalment
p2027
aVfinanc
p2028
aVfinanci
p2029
aVfinancian
p2030
aVfinancieel
p2031
aVfinanciero
p2032
aVfine
p2033
aVfinger
p2034
aVfingerscross
p2035
aVfinish
p2036
aVfinita
p2037
aVfinland
p2038
aVfire
p2039
aVfirefox
p2040
aVfirewir
p2041
aVfirma
p2042
aVfirmwar
p2043
aVfiscal
p2044
aVfisica
p2045
aVfit
p2046
aVfive
p2047
aVfix
p2048
aVfixit
p2049
aVfl
p2050
aVflash
p2051
aVflashcard
p2052
aVflawless
p2053
aVfleet
p2054
aVflexibilidad
p2055
aVflink
p2056
aVflip
p2057
aVflipando
p2058
aVflllw
p2059
aVflojera
p2060
aVflower
p2061
aVflv
p2062
aVfn
p2063
aVfo
p2064
aVfocu
p2065
aVfoda
p2066
aVfode
p2067
aVfoi
p2068
aVfolder
p2069
aVfolk
p2070
aVfollow
p2071
aVfollowback
p2072
aVfollowdaibosyu
p2073
aVfollowe
p2074
aVfollowfriday
p2075
aVfollowlimitisgay
p2076
aVfollowm
p2077
aVfollowmejp
p2078
aVfollownow
p2079
aVfome
p2080
aVfonction
p2081
aVfondo
p2082
aVfone
p2083
aVfono
p2084
aVfont
p2085
aVfoodi
p2086
aVfoolish
p2087
aVfoon
p2088
aVforb
p2089
aVforc
p2090
aVford
p2091
aVfordert
p2092
aVforev
p2093
aVforeveralon
p2094
aVforex
p2095
aVforget
p2096
aVforgettin
p2097
aVforgiv
p2098
aVforgotten
p2099
aVforimmedi
p2100
aVforma
p2101
aVformaci
p2102
aVformat
p2103
aVforsur
p2104
aVfortfarand
p2105
aVforth
p2106
aVforward
p2107
aVfoss
p2108
aVfota
p2109
aVfoto
p2110
aVfotografia
p2111
aVfotostr
p2112
aVfou
p2113
aVfoundat
p2114
aVfounder
p2115
aVfox
p2116
aVfr
p2117
aVfran
p2118
aVfranc
p2119
aVfranchement
p2120
aVfrancisco
p2121
aVfrase
p2122
aVfre
p2123
aVfreak
p2124
aVfree
p2125
aVfreega
p2126
aVfreelanc
p2127
aVfreestyl
p2128
aVfreez
p2129
aVfrench
p2130
aVfrent
p2131
aVfresh
p2132
aVfrework
p2133
aVfri
p2134
aVfriend
p2135
aVfriendship
p2136
aVfring
p2137
aVfrio
p2138
aVfrown
p2139
aVfroze
p2140
aVfrozen
p2141
aVfruit
p2142
aVfrustrat
p2143
aVfruta
p2144
aVfsf
p2145
aVft
p2146
aVfuck
p2147
aVfucker
p2148
aVfuckin
p2149
aVfuckyoumean
p2150
aVfue
p2151
aVfuel
p2152
aVfuera
p2153
aVfuh
p2154
aVfui
p2155
aVfuieskecido
p2156
aVfull
p2157
aVfullscreen
p2158
aVfulmin
p2159
aVfun
p2160
aVfunciona
p2161
aVfuncionalidad
p2162
aVfuncionan
p2163
aVfuncionar
p2164
aVfunction
p2165
aVfund
p2166
aVfundando
p2167
aVfung
p2168
aVfunni
p2169
aVfunniest
p2170
aVfunziona
p2171
aVfunzioni
p2172
aVfutur
p2173
aVfuturo
p2174
aVfuzzbal
p2175
aVg
p2176
aVga
p2177
aVgaaf
p2178
aVgaan
p2179
aVgaat
p2180
aVgadget
p2181
aVgain
p2182
aVgalaxi
p2183
aVgalaxy_nexu
p2184
aVgalaxynexu
p2185
aVgalera
p2186
aVgaleraa
p2187
aVgaleri
p2188
aVgallen
p2189
aVgalleri
p2190
aVgana
p2191
aVganando
p2192
aVganaron
p2193
aVganna
p2194
aVgano
p2195
aVganun
p2196
aVgaranti
p2197
aVgarner
p2198
aVgarotanachuva
p2199
aVgartnersym
p2200
aVgate
p2201
aVgato
p2202
aVgave
p2203
aVgazett
p2204
aVgbar
p2205
aVgd
p2206
aVgdapp
p2207
aVge
p2208
aVgear
p2209
aVgebi
p2210
aVgebruik
p2211
aVgecent
p2212
aVgeeft
p2213
aVgeek
p2214
aVgeekfact
p2215
aVgeekwir
p2216
aVgefunden
p2217
aVgegen
p2218
aVgehabt
p2219
aVgeld
p2220
aVgelec
p2221
aVgeleerd
p2222
aVgelijk
p2223
aVgem
p2224
aVgemaakt
p2225
aVgemist
p2226
aVgen
p2227
aVgenau
p2228
aVgener
p2229
aVgenerador
p2230
aVgenial
p2231
aVgeniu
p2232
aVgenoeg
p2233
aVgent
p2234
aVgentl
p2235
aVgenyen
p2236
aVgeographictarget
p2237
aVgeoloco
p2238
aVgepresenteerd
p2239
aVger
p2240
aVgera
p2241
aVgeral
p2242
aVgerardopaolillo
p2243
aVgesti
p2244
aVgestion
p2245
aVgettin
p2246
aVgevecht
p2247
aVgeven
p2248
aVgeweigerd
p2249
aVgeweldig
p2250
aVgezien
p2251
aVgf
p2252
aVgfeller
p2253
aVggen
p2254
aVgi
p2255
aVgiant
p2256
aVgica
p2257
aVgift
p2258
aVgig
p2259
aVgigaom
p2260
aVgigo
p2261
aVgimmi
p2262
aVgina
p2263
aVging
p2264
aVgingerbread
p2265
aVgingrich
p2266
aVgio
p2267
aVgiorno
p2268
aVgiqu
p2269
aVgirl
p2270
aVgisteren
p2271
aVgitex
p2272
aVgive
p2273
aVgiveaway
p2274
aVgiveitup
p2275
aVgizmo
p2276
aVgizmolog
p2277
aVglad
p2278
aVglasvezel
p2279
aVglaub
p2280
aVglendal
p2281
aVglitch
p2282
aVglobal
p2283
aVglobe
p2284
aVglorifi
p2285
aVglutu
p2286
aVgm
p2287
aVgmail
p2288
aVgmusic
p2289
aVgn
p2290
aVgnu
p2291
aVgnutta
p2292
aVgoalset
p2293
aVgod
p2294
aVgoe
p2295
aVgoen
p2296
aVgoin
p2297
aVgold
p2298
aVgolp
p2299
aVgome
p2300
aVgona
p2301
aVgone
p2302
aVgonna
p2303
aVgood
p2304
aVgoodnew
p2305
aVgoodnight
p2306
aVgoodnightpeopl
p2307
aVgoodnightworld
p2308
aVgoodnit
p2309
aVgoodtoknow
p2310
aVgoodwil
p2311
aVgoog
p2312
aVgoogl
p2313
aVgoogland
p2314
aVgoogleapp
p2315
aVgoogledoc
p2316
aVgooglenew
p2317
aVgooglepanda
p2318
aVgooglephon
p2319
aVgoogleplu
p2320
aVgooglesearch
p2321
aVgoogletoolbar
p2322
aVgooglewatchblog
p2323
aVgoos
p2324
aVgorinchem
p2325
aVgosoci
p2326
aVgosta
p2327
aVgostando
p2328
aVgostaria
p2329
aVgostei
p2330
aVgot
p2331
aVgotta
p2332
aVgouden
p2333
aVgovernor
p2334
aVgovh
p2335
aVgp
p2336
aVgplu
p2337
aVgr
p2338
aVgrab
p2339
aVgracia
p2340
aVgran
p2341
aVgrand
p2342
aVgrantthornton
p2343
aVgraphic
p2344
aVgraphicsworkst
p2345
aVgrasiia
p2346
aVgrass
p2347
aVgrati
p2348
aVgration
p2349
aVgratti
p2350
aVgrava
p2351
aVgraxiia
p2352
aVgray
p2353
aVgrazi
p2354
aVgrde
p2355
aVgreader
p2356
aVgreat
p2357
aVgreater
p2358
aVgreatli
p2359
aVgreatsuccess
p2360
aVgreener
p2361
aVgreenest
p2362
aVgreenrank
p2363
aVgreenwich
p2364
aVgrew
p2365
aVgrietict
p2366
aVgrin
p2367
aVgrind
p2368
aVgro
p2369
aVgroeipo
p2370
aVgroeit
p2371
aVgrolschvest
p2372
aVgroningen
p2373
aVground
p2374
aVgroup
p2375
aVgroupi
p2376
aVgroupon
p2377
aVgroupwis
p2378
aVgrowth
p2379
aVgrowuppeterpan
p2380
aVgrrrr
p2381
aVgrupo
p2382
aVgsi
p2383
aVgt
p2384
aVgtem
p2385
aVguacaya
p2386
aVguadalajara
p2387
aVguarante
p2388
aVguard
p2389
aVguardian
p2390
aVgud
p2391
aVgudnit
p2392
aVguess
p2393
aVguesser
p2394
aVguest
p2395
aVgui
p2396
aVgulp
p2397
aVgunaiiii
p2398
aVgundotra
p2399
aVgunna
p2400
aVguru
p2401
aVgusta
p2402
aVgustando
p2403
aVgustar
p2404
aVgut
p2405
aVguy
p2406
aVh
p2407
aVha
p2408
aVhaalt
p2409
aVhab
p2410
aVhabe
p2411
aVhaber
p2412
aVhaberleryorumlar
p2413
aVhabian
p2414
aVhabilidad
p2415
aVhabitant
p2416
aVhablar
p2417
aVhablo
p2418
aVhabra
p2419
aVhace
p2420
aVhacer
p2421
aVhack
p2422
aVhackeado
p2423
aVhackeo
p2424
aVhacker
p2425
aVhadopi
p2426
aVhaha
p2427
aVhahaha
p2428
aVhahahaha
p2429
aVhahahahhaha
p2430
aVhahahhaha
p2431
aVhain
p2432
aVhair
p2433
aVhairlin
p2434
aVhalf
p2435
aVhall
p2436
aVhallelujah
p2437
aVhalo
p2438
aVhan
p2439
aVhanbel
p2440
aVhand
p2441
aVhandelingen
p2442
aVhandi
p2443
aVhandig
p2444
aVhandl
p2445
aVhandmatig
p2446
aVhandset
p2447
aVhang
p2448
aVhangout
p2449
aVhappen
p2450
aVhappi
p2451
aVhaptiqu
p2452
aVhar
p2453
aVhard
p2454
aVharder
p2455
aVhardwar
p2456
aVharmonix
p2457
aVharper
p2458
aVharshgandhitk
p2459
aVharvard
p2460
aVhashtag
p2461
aVhasn
p2462
aVhasta
p2463
aVhat
p2464
aVhate
p2465
aVhater
p2466
aVhatt
p2467
aVhaut
p2468
aVhave
p2469
aVhaven
p2470
aVhavin
p2471
aVhay
p2472
aVhcsmeu
p2473
aVhd
p2474
aVhdmi
p2475
aVhdv
p2476
aVhead
p2477
aVheadlin
p2478
aVheadphon
p2479
aVhealth
p2480
aVhealthit
p2481
aVhealthvault
p2482
aVhear
p2483
aVheard
p2484
aVheart
p2485
aVheavi
p2486
aVheb
p2487
aVhebben
p2488
aVheck
p2489
aVhectic
p2490
aVhedicho
p2491
aVheeft
p2492
aVhehe
p2493
aVheheh
p2494
aVhehh
p2495
aVheis
p2496
aVhele
p2497
aVhell
p2498
aVhella
p2499
aVhellmuth
p2500
aVhello
p2501
aVhellyeah
p2502
aVhelp
p2503
aVhelsinki
p2504
aVhelt
p2505
aVhelvetica
p2506
aVheme
p2507
aVhemp
p2508
aVhendrick
p2509
aVhennessyn
p2510
aVhere
p2511
aVhermanita
p2512
aVhero
p2513
aVherrienta
p2514
aVhet
p2515
aVheur
p2516
aVheut
p2517
aVhey
p2518
aVhi
p2519
aVhiba
p2520
aVhide
p2521
aVhierov
p2522
aVhige
p2523
aVhigh
p2524
aVhigher
p2525
aVhighlight
p2526
aVhighscoolmemori
p2527
aVhij
p2528
aVhilari
p2529
aVhillsdal
p2530
aVhindi
p2531
aVhinwei
p2532
aVhipocrita
p2533
aVhipster
p2534
aVhire
p2535
aVhiso
p2536
aVhispan
p2537
aVhiss
p2538
aVhissi
p2539
aVhistori
p2540
aVhistoria
p2541
aVhit
p2542
aVhitech
p2543
aVhj
p2544
aVhk
p2545
aVhm
p2546
aVhmm
p2547
aVhmmm
p2548
aVhnew
p2549
aVho
p2550
aVhocker
p2551
aVhoe
p2552
aVhogwart
p2553
aVhoh
p2554
aVhoje
p2555
aVhola
p2556
aVhold
p2557
aVholdem
p2558
aVholder
p2559
aVholiday
p2560
aVholodeck
p2561
aVholodesk
p2562
aVhome
p2563
aVhomedepot
p2564
aVhomeless
p2565
aVhonda
p2566
aVhoney
p2567
aVhoneycomb
p2568
aVhong
p2569
aVhongkong
p2570
aVhonor
p2571
aVhoo
p2572
aVhookup
p2573
aVhope
p2574
aVhoppa
p2575
aVhora
p2576
aVhorariodeverao
p2577
aVhorizont
p2578
aVhorroch
p2579
aVhors
p2580
aVhost
p2581
aVhoster
p2582
aVhot
p2583
aVhotel
p2584
aVhotmail
p2585
aVhotspot
p2586
aVhour
p2587
aVhous
p2588
aVhousehold
p2589
aVhouston
p2590
aVhoy
p2591
aVhp
p2592
aVhpc
p2593
aVhq
p2594
aVhr
p2595
aVhrung
p2596
aVht
p2597
aVhtc
p2598
aVhtl
p2599
aVhtt
p2600
aVhttp
p2601
aVhubbi
p2602
aVhubo
p2603
aVhueon
p2604
aVhuffington
p2605
aVhuffpost
p2606
aVhuge
p2607
aVhui
p2608
aVhulu
p2609
aVhuman
p2610
aVhumantraffick
p2611
aVhumbl
p2612
aVhumilhar
p2613
aVhumor
p2614
aVhumour
p2615
aVhungri
p2616
aVhurri
p2617
aVhurt
p2618
aVhut
p2619
aVhvac
p2620
aVhvordan
p2621
aVhype
p2622
aVhyperlink
p2623
aVhyperv
p2624
aVhypo
p2625
aVhypocrit
p2626
aVhyvesspelletj
p2627
aVia
p2628
aViaa
p2629
aViadmir
p2630
aViae
p2631
aViba
p2632
aVibm
p2633
aVibook
p2634
aVic
p2635
aVical
p2636
aVicar
p2637
aVice
p2638
aVice_cre_sandwich
p2639
aVicecr
p2640
aVicecresandwich
p2641
aVicecresandwichfail
p2642
aVicelebr
p2643
aVich
p2644
aVichiro_
p2645
aVici
p2646
aVicloud
p2647
aViclould
p2648
aVicon
p2649
aVicpc
p2650
aVict
p2651
aVid
p2652
aVidea
p2653
aVidentifi
p2654
aVidiotec
p2655
aVidisk
p2656
aVidk
p2657
aVie8
p2658
aViesgo
p2659
aVifb
p2660
aVifollowback
p2661
aViful
p2662
aViga
p2663
aVigloo
p2664
aVignor
p2665
aVigo
p2666
aVih
p2667
aVihateitwhen
p2668
aVihateyourightnow
p2669
aVihr
p2670
aVihrem
p2671
aVii
p2672
aVik
p2673
aVil
p2674
aVill
p2675
aVillustr
p2676
aViloveya
p2677
aVilumin
p2678
aVim
p2679
aVima
p2680
aVimac
p2681
aVimag
p2682
aVimagin
p2683
aVimagino
p2684
aVime
p2685
aVimessag
p2686
aVimit
p2687
aVimita
p2688
aVimjusaskin
p2689
aVimmedi
p2690
aVimmin
p2691
aVimmobilienbewirtschaftung
p2692
aVimo
p2693
aVimpact
p2694
aVimperson
p2695
aVimpl
p2696
aVimplant
p2697
aVimplement
p2698
aVimpliqu
p2699
aVimport
p2700
aVimporta
p2701
aVimportancia
p2702
aVimportant
p2703
aVimposs
p2704
aVimpresi
p2705
aVimpress
p2706
aVimpression
p2707
aVimpressionado
p2708
aVimpressionn
p2709
aVimprov
p2710
aVimpulsor
p2711
aVimron
p2712
aVina
p2713
aVinbox
p2714
aVinbuilt
p2715
aVincap
p2716
aVincent
p2717
aVincl
p2718
aVinclu
p2719
aVinclud
p2720
aVincompar
p2721
aVincompat
p2722
aVinconveni
p2723
aVinconvenienc
p2724
aVincorrect
p2725
aVincreas
p2726
aVincred
p2727
aVincredibil
p2728
aVincreibl
p2729
aVincrivel
p2730
aVind
p2731
aVinde
p2732
aVindex
p2733
aVindi
p2734
aVindia
p2735
aVindian
p2736
aVindic
p2737
aVindicadoresdegesti
p2738
aVindicar
p2739
aVindiqu
p2740
aVindirecta
p2741
aVindirectaaa
p2742
aVindispen
p2743
aVindustri
p2744
aVineedthosepictur
p2745
aVinend
p2746
aVinept
p2747
aVinferno
p2748
aVinfinit
p2749
aVinfinito
p2750
aVinfinitywebinar
p2751
aVinfluent
p2752
aVinfluenti
p2753
aVinfo
p2754
aVinfofail
p2755
aVinfograph
p2756
aVinform
p2757
aVinformaci
p2758
aVinformativo
p2759
aVinformazion
p2760
aVinforpath
p2761
aVinfosi
p2762
aVinfou
p2763
aVinfrastructur
p2764
aVingewikkeld
p2765
aVingl
p2766
aVinici
p2767
aVinicio
p2768
aViniti
p2769
aVinizia
p2770
aVinlin
p2771
aVinna
p2772
aVinner
p2773
aVinnov
p2774
aVinnovacion
p2775
aVinnovati
p2776
aVinput
p2777
aVinscrava
p2778
aVinscreva
p2779
aVinsert
p2780
aVinsid
p2781
aVinsight
p2782
aVinsignia
p2783
aVinsist
p2784
aVinsolv
p2785
aVinsomnio
p2786
aVinspir
p2787
aVinstal
p2788
aVinstallera
p2789
aVinstant
p2790
aVinstantann
p2791
aVinstantfollowback
p2792
aVinstead
p2793
aVinstellingen
p2794
aVinstitut
p2795
aVinstruct
p2796
aVinstrument
p2797
aVinsulta
p2798
aVinsur
p2799
aVintao
p2800
aVintegr
p2801
aVintegraci
p2802
aVintegrada
p2803
aVintegrat
p2804
aVinteiro
p2805
aVintel
p2806
aVintend
p2807
aVintenda
p2808
aVintent
p2809
aVinteract
p2810
aVinteractuar
p2811
aVinteresado
p2812
aVinteresant
p2813
aVinteress
p2814
aVinterfac
p2815
aVinterfaz
p2816
aVintern
p2817
aVinternasion
p2818
aVinternet
p2819
aVinternethighschoolofeduc
p2820
aVinteroper
p2821
aVinterrupt
p2822
aVinterv
p2823
aVinterview
p2824
aVintervista
p2825
aVinterweb
p2826
aVintikhab
p2827
aVintrducti
p2828
aVintrigu
p2829
aVintroduc
p2830
aVintroduct
p2831
aVintuit
p2832
aVintun
p2833
aVinvadi
p2834
aVinvent
p2835
aVinvento
p2836
aVinventori
p2837
aVinvertimo
p2838
aVinvest
p2839
aVinvestig
p2840
aVinvolv
p2841
aVio
p2842
aVios5
p2843
aVip
p2844
aVipad
p2845
aVipad2
p2846
aVipda
p2847
aVipexpo
p2848
aViphon
p2849
aViphone4
p2850
aViphoto
p2851
aVipo
p2852
aVipod
p2853
aVipod4
p2854
aVipodzombi
p2855
aVipso
p2856
aVir
p2857
aVirain
p2858
aVirgendwi
p2859
aViria
p2860
aVirl
p2861
aVirma
p2862
aVironi
p2863
aVirs
p2864
aVirvin
p2865
aVisaaa
p2866
aVisb
p2867
aViscr
p2868
aViscsi
p2869
aVisn
p2870
aVisnst
p2871
aVisso
p2872
aVissu
p2873
aVist
p2874
aVistep
p2875
aVistoriju
p2876
aVisv
p2877
aVitem
p2878
aViter
p2879
aVitmedia
p2880
aVito
p2881
aVitouch
p2882
aVitpro
p2883
aVitsecur
p2884
aVitstol
p2885
aVittrain
p2886
aVitun
p2887
aVitunesmatch
p2888
aVitunesstoresupport
p2889
aViuehaiuaheiuhaeiuh
p2890
aVive
p2891
aViwantanautomaticpromot
p2892
aVizad
p2893
aVj
p2894
aVja
p2895
aVjaan
p2896
aVjacket
p2897
aVjacob
p2898
aVjadi
p2899
aVjag
p2900
aVjaiku
p2901
aVjail
p2902
aVjailbroken
p2903
aVjaja
p2904
aVjajaja
p2905
aVjajajaj
p2906
aVjajajaja
p2907
aVjajajajaja
p2908
aVjajajajajaja
p2909
aVjajajajajajaj
p2910
aVjajajajajajajaj
p2911
aVjajjajaa
p2912
aVjak
p2913
aVjan
p2914
aVjane
p2915
aVjanm
p2916
aVjapan
p2917
aVjapanes
p2918
aVje
p2919
aVjean
p2920
aVjede
p2921
aVjeje
p2922
aVjeremey
p2923
aVjerkoffmor
p2924
aVjesu
p2925
aVjetzt
p2926
aVjewel
p2927
aVjewelri
p2928
aVjijijiji
p2929
aVjizz
p2930
aVjk
p2931
aVjme
p2932
aVjob
p2933
aVjodi
p2934
aVjoga
p2935
aVjogo
p2936
aVjohn
p2937
aVjoin
p2938
aVjoint
p2939
aVjoke
p2940
aVjorg
p2941
aVjou
p2942
aVjouer
p2943
aVjouit
p2944
aVjour
p2945
aVjourn
p2946
aVju
p2947
aVjuelaa
p2948
aVjugada
p2949
aVjuic
p2950
aVjuicio
p2951
aVjuick
p2952
aVjum
p2953
aVjump
p2954
aVjungle
p2955
aVjunki
p2956
aVjunkyard
p2957
aVjuntar
p2958
aVjunto
p2959
aVjuraba
p2960
aVjust
p2961
aVjustbecaus
p2962
aVjustic
p2963
aVjusto
p2964
aVjustsay
p2965
aVjustsayin
p2966
aVjuventud
p2967
aVjwn
p2968
aVk
p2969
aVkabinet
p2970
aVkaifi
p2971
aVkalifornia
p2972
aVkan
p2973
aVkann
p2974
aVkany
p2975
aVkapot
p2976
aVkar
p2977
aVkaraok
p2978
aVkarat
p2979
aVkaro
p2980
aVkasa
p2981
aVkasper
p2982
aVkasu
p2983
aVkat
p2984
aVkati
p2985
aVkaun
p2986
aVkayo
p2987
aVkazdem
p2988
aVke
p2989
aVkeadilan
p2990
aVkeepsak
p2991
aVkeepthedesktop
p2992
aVkein
p2993
aVkelkeswa
p2994
aVkelley
p2995
aVkenya
p2996
aVkenyaopendoor
p2997
aVkera
p2998
aVketua
p2999
aVkey
p3000
aVkeyboard
p3001
aVkeynot
p3002
aVkeynoteu
p3003
aVkeyword
p3004
aVkhoslaventur
p3005
aVki
p3006
aVkick
p3007
aVkickoff
p3008
aVkid
p3009
aVkiit
p3010
aVkijk
p3011
aVkikitoutdur
p3012
aVkill
p3013
aVkinda
p3014
aVkinect
p3015
aVkisesesseseseseseses
p3016
aVkiss
p3017
aVkit
p3018
aVkita
p3019
aVkk
p3020
aVkkk
p3021
aVkkkkkk
p3022
aVkkkkkkk
p3023
aVklick
p3024
aVklingelt
p3025
aVklout
p3026
aVknapp
p3027
aVknee
p3028
aVknew
p3029
aVkno
p3030
aVknow
p3031
aVknown
p3032
aVko
p3033
aVkoali
p3034
aVkofax
p3035
aVkomen
p3036
aVkomplicerat
p3037
aVkomprar
p3038
aVkong
p3039
aVkontrak
p3040
aVkontrol
p3041
aVkonzentr
p3042
aVkoopt
p3043
aVkoppel
p3044
aVkorben
p3045
aVkost
p3046
aVkostenlo
p3047
aVkostenlos
p3048
aVkpi
p3049
aVkrachtigst
p3050
aVkranen
p3051
aVkrass
p3052
aVkraus
p3053
aVkreo
p3054
aVkrijgen
p3055
aVkrijgt
p3056
aVkroker
p3057
aVkroz
p3058
aVksoaksopk
p3059
aVkun
p3060
aVkunt
p3061
aVkur
p3062
aVkurz
p3063
aVkvar
p3064
aVkwijt
p3065
aVky
p3066
aVl
p3067
aVla
p3068
aVlaa
p3069
aVlaaficion
p3070
aVlaah
p3071
aVlaatst
p3072
aVlab
p3073
aVlabor
p3074
aVlachmomentj
p3075
aVlack
p3076
aVladi
p3077
aVlag
p3078
aVlager
p3079
aVlagi
p3080
aVlaisser
p3081
aVlalyloka
p3082
aVlan
p3083
aVland
p3084
aVlandscap
p3085
aVlang
p3086
aVlangs
p3087
aVlangt
p3088
aVlanguag
p3089
aVlanza
p3090
aVlanzan
p3091
aVlanzar
p3092
aVlanzara
p3093
aVlanziento
p3094
aVlaps
p3095
aVlaptop
p3096
aVlaptopwebc
p3097
aVlare
p3098
aVlarga
p3099
aVlargo
p3100
aVlassen
p3101
aVlate
p3102
aVlater
p3103
aVlatest
p3104
aVlatino
p3105
aVlatiola
p3106
aVlatter
p3107
aVlaugh
p3108
aVlaughabl
p3109
aVlaunch
p3110
aVlaunchfail
p3111
aVlaw
p3112
aVlawschool
p3113
aVlawsuit
p3114
aVlawyer
p3115
aVlay
p3116
aVlayout
p3117
aVle
p3118
aVlea
p3119
aVlead
p3120
aVleader
p3121
aVleadership
p3122
aVlean
p3123
aVlearn
p3124
aVleas
p3125
aVleav
p3126
aVleccionesparalavida
p3127
aVlectionn
p3128
aVlectur
p3129
aVled
p3130
aVlee
p3131
aVleemo
p3132
aVleer
p3133
aVleerlo
p3134
aVleerz
p3135
aVleft
p3136
aVlegaci
p3137
aVlegado
p3138
aVlegal
p3139
aVleia
p3140
aVleiderschap
p3141
aVlekker
p3142
aVleland
p3143
aVlembrado
p3144
aVlenbro
p3145
aVlesson
p3146
aVlet
p3147
aVletter
p3148
aVleuk
p3149
aVlevel
p3150
aVlevererar
p3151
aVlevin
p3152
aVlgfw
p3153
aVli
p3154
aVlibrari
p3155
aVlibrero
p3156
aVlibro
p3157
aVlicenc
p3158
aVlicens
p3159
aVlie
p3160
aVlien
p3161
aVlieuxpubl
p3162
aVlife
p3163
aVlifec
p3164
aVlift
p3165
aVligar
p3166
aVlight
p3167
aVlightli
p3168
aVlign
p3169
aVliien
p3170
aVlike
p3171
aVlil
p3172
aVlimit
p3173
aVlimitless
p3174
aVlincoln
p3175
aVlinda
p3176
aVlindo
p3177
aVline
p3178
aVlink
p3179
aVlinkbuild
p3180
aVlinkedin
p3181
aVlinux
p3182
aVlion
p3183
aVlisa
p3184
aVlist
p3185
aVlisten
p3186
aVlite
p3187
aVliten
p3188
aVliter
p3189
aVlittl
p3190
aVlive
p3191
aVlivr
p3192
aVlk
p3193
aVll
p3194
aVllado
p3195
aVlleg
p3196
aVllegar
p3197
aVllegast
p3198
aVllego
p3199
aVlleva
p3200
aVllevo
p3201
aVllo
p3202
aVlmao
p3203
aVlmaoo
p3204
aVlmfao
p3205
aVlnt
p3206
aVlo
p3207
aVload
p3208
aVloath
p3209
aVlobbi
p3210
aVlocal
p3211
aVlocat
p3212
aVlock
p3213
aVlockscreen
p3214
aVloco
p3215
aVlog
p3216
aVlogic
p3217
aVlogin
p3218
aVlogitech
p3219
aVlogo
p3220
aVlogr
p3221
aVloin
p3222
aVloja
p3223
aVlol
p3224
aVlolol
p3225
aVlolz
p3226
aVlombok
p3227
aVlomp
p3228
aVlondon
p3229
aVlone
p3230
aVlong
p3231
aVlonger
p3232
aVlook
p3233
aVlookin
p3234
aVlookitup
p3235
aVlookout
p3236
aVlookup
p3237
aVloop
p3238
aVloos
p3239
aVlord
p3240
aVlose
p3241
aVloser
p3242
aVloss
p3243
aVlost
p3244
aVlostasothafucka
p3245
aVlot
p3246
aVloud
p3247
aVloup
p3248
aVlovat
p3249
aVlove
p3250
aVlovemyiphon
p3251
aVlover
p3252
aVlovin
p3253
aVlow
p3254
aVlower
p3255
aVloyalti
p3256
aVlqm
p3257
aVlt
p3258
aVltcartoon
p3259
aVltima
p3260
aVltimo
p3261
aVlucha
p3262
aVlucinda
p3263
aVluck
p3264
aVlucki
p3265
aVluego
p3266
aVlugar
p3267
aVlui
p3268
aVlunch
p3269
aVluz
p3270
aVly
p3271
aVlync
p3272
aVm
p3273
aVm10135
p3274
aVma
p3275
aVmaaal
p3276
aVmaagiina
p3277
aVmaak
p3278
aVmaakt
p3279
aVmaar
p3280
aVmac
p3281
aVmacbook
p3282
aVmachin
p3283
aVmacht
p3284
aVmaclif
p3285
aVmacro
p3286
aVmactard
p3287
aVmacworld
p3288
aVmade
p3289
aVmadrugada
p3290
aVmadrugo
p3291
aVmaestro
p3292
aVmagazin
p3293
aVmagic
p3294
aVmagliett
p3295
aVmai
p3296
aVmail
p3297
aVmain
p3298
aVmainli
p3299
aVmainten
p3300
aVmaioria
p3301
aVmaison
p3302
aVmajo
p3303
aVmajor
p3304
aVmajorfail
p3305
aVmakar
p3306
aVmake
p3307
aVmakemeproud
p3308
aVmakesnomovetogetupfromcomput
p3309
aVmal
p3310
aVmala
p3311
aVmalaysia
p3312
aVmaldi
p3313
aVmaldito
p3314
aVmall
p3315
aVmalon
p3316
aVmalwar
p3317
aVman
p3318
aVmanag
p3319
aVmanagerin
p3320
aVmand
p3321
aVmandarin
p3322
aVmandiento
p3323
aVmane
p3324
aVmanejar
p3325
aVmanerd
p3326
aVmango
p3327
aVmanhol
p3328
aVmani
p3329
aVmanipul
p3330
aVmann
p3331
aVmanni
p3332
aVmano
p3333
aVmansion
p3334
aVmanual
p3335
aVmanz
p3336
aVmap
p3337
aVmara
p3338
aVmarca
p3339
aVmarch
p3340
aVmarijuana
p3341
aVmark
p3342
aVmarket
p3343
aVmarketplac
p3344
aVmarkt
p3345
aVmaroc
p3346
aVmarqu
p3347
aVmart
p3348
aVmartesviajero
p3349
aVmartin
p3350
aVmaryland
p3351
aVmasih
p3352
aVmaster
p3353
aVmat
p3354
aVmataron
p3355
aVmatch
p3356
aVmatheu
p3357
aVmatter
p3358
aVmauvais
p3359
aVmaxim
p3360
aVmayb
p3361
aVmayor
p3362
aVmb
p3363
aVmbp
p3364
aVmcbride
p3365
aVmccreadi
p3366
aVmcitp
p3367
aVmcommerc
p3368
aVmcse
p3369
aVmctsummitna
p3370
aVmd
p3371
aVmdd
p3372
aVmdr
p3373
aVmean
p3374
aVmeant
p3375
aVmecha
p3376
aVmechanisch
p3377
aVmed
p3378
aVmedia
p3379
aVmediagof
p3380
aVmedidt
p3381
aVmedio
p3382
aVmeego
p3383
aVmeekli
p3384
aVmeer
p3385
aVmeesmoo
p3386
aVmeest
p3387
aVmeet
p3388
aVmehr
p3389
aVmeilleur
p3390
aVmein
p3391
aVmeiner
p3392
aVmeinung
p3393
aVmejor
p3394
aVmejora
p3395
aVmejorarlo
p3396
aVmelbourn
p3397
aVmelhor
p3398
aVmellon
p3399
aVmemori
p3400
aVmen
p3401
aVmencion
p3402
aVmene
p3403
aVmengaku
p3404
aVmenm
p3405
aVmeno
p3406
aVmensagen
p3407
aVmensaj
p3408
aVment
p3409
aVmention
p3410
aVmenuda
p3411
aVmercado
p3412
aVmercato
p3413
aVmerchandis
p3414
aVmerda
p3415
aVmerec
p3416
aVmerecen
p3417
aVmeresmikan
p3418
aVmerii
p3419
aVmerk
p3420
aVmese
p3421
aVmesh
p3422
aVmesmo
p3423
aVmess
p3424
aVmessag
p3425
aVmessageri
p3426
aVmessi
p3427
aVmet
p3428
aVmetalogix
p3429
aVmetan
p3430
aVmeteen
p3431
aVmethink
p3432
aVmethod
p3433
aVmetiendo
p3434
aVmetio
p3435
aVmeto
p3436
aVmetofors
p3437
aVmetro
p3438
aVmettr
p3439
aVmeu
p3440
aVmexer
p3441
aVmexico
p3442
aVmf
p3443
aVmi
p3444
aVmia
p3445
aVmica
p3446
aVmich
p3447
aVmichaeljacksonqui
p3448
aVmichigan
p3449
aVmichigand
p3450
aVmico
p3451
aVmicr
p3452
aVmicroso
p3453
aVmicrosof
p3454
aVmicrosoft
p3455
aVmicrosoftstor
p3456
aVmiddl
p3457
aVmidia
p3458
aVmierda
p3459
aVmieux
p3460
aVmighti
p3461
aVmigliorato
p3462
aVmigrat
p3463
aVmii
p3464
aVmiii
p3465
aVmiiiiiiiiiiiiiiira
p3466
aVmij
p3467
aVmijn
p3468
aVmike
p3469
aVmilano
p3470
aVmilena
p3471
aVmiley
p3472
aVmilh
p3473
aVmilki
p3474
aVmilli
p3475
aVmillion
p3476
aVmillon
p3477
aVmim
p3478
aVmimir
p3479
aVmind
p3480
aVmindshar
p3481
aVmindtre
p3482
aVmine
p3483
aVminecraft
p3484
aVminha
p3485
aVmini
p3486
aVminimo
p3487
aVminipandi
p3488
aVminor
p3489
aVminsyu
p3490
aVminta
p3491
aVminu
p3492
aVminut
p3493
aVminuten
p3494
aVminuto
p3495
aVmio
p3496
aVmira
p3497
aVmire
p3498
aVmise
p3499
aVmisma
p3500
aVmiss
p3501
aVmission
p3502
aVmit
p3503
aVmittel
p3504
aVmixer
p3505
aVmixtap
p3506
aVmkii
p3507
aVmkon
p3508
aVmkt
p3509
aVmln
p3510
aVmm
p3511
aVmmeant
p3512
aVmmm
p3513
aVmmmm
p3514
aVmnt
p3515
aVmo
p3516
aVmob
p3517
aVmobiel
p3518
aVmobiflip
p3519
aVmobil
p3520
aVmobiledevic
p3521
aVmobilem
p3522
aVmobilemem
p3523
aVmobilenew
p3524
aVmoda
p3525
aVmode
p3526
aVmodel
p3527
aVmodelo
p3528
aVmodern
p3529
aVmodifi
p3530
aVmoe
p3531
aVmoederbedrijven
p3532
aVmoeilijk
p3533
aVmoet
p3534
aVmogelijkheden
p3535
aVmoi
p3536
aVmoin
p3537
aVmole
p3538
aVmom
p3539
aVmoment
p3540
aVmomento
p3541
aVmommi
p3542
aVmon
p3543
aVmonday
p3544
aVmondo
p3545
aVmoney
p3546
aVmonica
p3547
aVmonitor
p3548
aVmonitorar
p3549
aVmonopoli
p3550
aVmonopolio
p3551
aVmont
p3552
aVmontaron
p3553
aVmonth
p3554
aVmood
p3555
aVmooi
p3556
aVmooie
p3557
aVmoral
p3558
aVmore
p3559
aVmorgen
p3560
aVmorgenvroeg
p3561
aVmorgon
p3562
aVmorn
p3563
aVmoroccomal
p3564
aVmoron
p3565
aVmorphi
p3566
aVmortar
p3567
aVmosca
p3568
aVmostlik
p3569
aVmostrar
p3570
aVmot
p3571
aVmother
p3572
aVmoto
p3573
aVmotoactiv
p3574
aVmotoactv
p3575
aVmotocorp
p3576
aVmotofail
p3577
aVmotorcycl
p3578
aVmotorola
p3579
aVmouch
p3580
aVmourn
p3581
aVmous
p3582
aVmouth
p3583
aVmove
p3584
aVmovement
p3585
aVmovi
p3586
aVmp4
p3587
aVmpn
p3588
aVmpromo
p3589
aVmr
p3590
aVms
p3591
aVmsdp
p3592
aVmsdynerp
p3593
aVmsft
p3594
aVmsftnew
p3595
aVmsg
p3596
aVmsn
p3597
aVmsp
p3598
aVmsptechday
p3599
aVmssinergija
p3600
aVmstech
p3601
aVmt
p3602
aVmucha
p3603
aVmuchhh
p3604
aVmucho
p3605
aVmudar
p3606
aVmuestra
p3607
aVmugbi
p3608
aVmuh
p3609
aVmuita
p3610
aVmukesh
p3611
aVmukeshbani
p3612
aVmul
p3613
aVmull
p3614
aVmulti
p3615
aVmultilang
p3616
aVmultimedia
p3617
aVmultipl
p3618
aVmultitactil
p3619
aVmultiten
p3620
aVmultitouch
p3621
aVmundo
p3622
aVmusic
p3623
aVmusica
p3624
aVmustfollow
p3625
aVmuuaahhzz
p3626
aVmuy
p3627
aVmuycan
p3628
aVmv
p3629
aVmvp
p3630
aVmvpbuzz
p3631
aVmyself
p3632
aVmyspac
p3633
aVn
p3634
aVna
p3635
aVnaah
p3636
aVnaar
p3637
aVnaaum
p3638
aVnach
p3639
aVnachdem
p3640
aVnacht
p3641
aVnacido
p3642
aVnacion
p3643
aVnada
p3644
aVnadi
p3645
aVnagekomen
p3646
aVnagoya
p3647
aVnaid
p3648
aVnajua
p3649
aVnao
p3650
aVnaprosto
p3651
aVnasa
p3652
aVnascent
p3653
aVnase
p3654
aVnasti
p3655
aVnat
p3656
aVnationalgeograph
p3657
aVnationaltv
p3658
aVnativ
p3659
aVnatuuuuuuurlijk
p3660
aVnauseou
p3661
aVnauw
p3662
aVnav
p3663
aVnavegar
p3664
aVnavig
p3665
aVnavigateur
p3666
aVnavigati
p3667
aVnavis
p3668
aVnaw
p3669
aVnb
p3670
aVnd
p3671
aVndale
p3672
aVne
p3673
aVnear
p3674
aVnearest
p3675
aVnearli
p3676
aVneat
p3677
aVnecesita
p3678
aVnecesito
p3679
aVneck
p3680
aVned
p3681
aVned1
p3682
aVnee
p3683
aVneea
p3684
aVneed
p3685
aVneed4
p3686
aVneedless
p3687
aVneedsomethingtoread
p3688
aVneg
p3689
aVnegocio
p3690
aVnegro
p3691
aVneither
p3692
aVnejby
p3693
aVnem
p3694
aVnemecku
p3695
aVneowin
p3696
aVnerdi
p3697
aVnerdverein
p3698
aVnesta
p3699
aVnet
p3700
aVnetapp
p3701
aVnetscap
p3702
aVnett
p3703
aVnetwork
p3704
aVnetworkin
p3705
aVnetzwerk
p3706
aVneue
p3707
aVneuen
p3708
aVnever
p3709
aVnew
p3710
aVnewbestfriend
p3711
aVnewest
p3712
aVnewfeatur
p3713
aVnewgadget
p3714
aVnewli
p3715
aVnewmus
p3716
aVnews
p3717
aVnewsstand
p3718
aVnewstick
p3719
aVnewt
p3720
aVnewtgingrich
p3721
aVnexu
p3722
aVnexus_prim
p3723
aVnexusprim
p3724
aVnexuss
p3725
aVnf
p3726
aVnfc
p3727
aVnftige
p3728
aVnga
p3729
aVngert
p3730
aVni
p3731
aVnice
p3732
aVnicehir
p3733
aVnicht
p3734
aVnick
p3735
aVnicki
p3736
aVnico
p3737
aVnie
p3738
aVniemand
p3739
aVniet
p3740
aVnieuw
p3741
aVnieuwst
p3742
aVnig
p3743
aVnigga
p3744
aVnight
p3745
aVnightattheroxburi
p3746
aVnighti
p3747
aVnightmar
p3748
aVniiiiii
p3749
aVnim
p3750
aVningu
p3751
aVninguem
p3752
aVninguno
p3753
aVnite
p3754
aVnivel
p3755
aVnl
p3756
aVnoarchiv
p3757
aVnobel
p3758
aVnobueno
p3759
aVnocee
p3760
aVnoch
p3761
aVnoche
p3762
aVnocturn
p3763
aVnog
p3764
aVnoit
p3765
aVnoitt
p3766
aVnoiva
p3767
aVnokia
p3768
aVnokian9
p3769
aVnoma
p3770
aVnombr
p3771
aVnome
p3772
aVnomineren
p3773
aVnone
p3774
aVnonusatimezonel
p3775
aVnoo
p3776
aVnooki
p3777
aVnoowwwwww
p3778
aVnopati
p3779
aVnope
p3780
aVnoreallyihearvoic
p3781
aVnortel
p3782
aVnorway
p3783
aVnose
p3784
aVnossa
p3785
aVnotbook
p3786
aVnote
p3787
aVnotebook
p3788
aVnotgoingtolast
p3789
aVnothappi
p3790
aVnotic
p3791
aVnoticia
p3792
aVnotif
p3793
aVnotifi
p3794
aVnotifica
p3795
aVnotjustaboutthephon
p3796
aVnotreal
p3797
aVnotrespond
p3798
aVnotsosuperpro
p3799
aVnou
p3800
aVnouveau
p3801
aVnouvel
p3802
aVnov
p3803
aVnova
p3804
aVnovata
p3805
aVnovedad
p3806
aVnovel
p3807
aVnovela
p3808
aVnovelti
p3809
aVnovemb
p3810
aVnovia
p3811
aVnovidad
p3812
aVnoviembr
p3813
aVnovio
p3814
aVnovo
p3815
aVnowicanspendevenmoretimeonmyphon
p3816
aVnowplay
p3817
aVnoww
p3818
aVns
p3819
aVnt
p3820
aVntchat
p3821
aVnu
p3822
aVnuandroid
p3823
aVnube
p3824
aVnuestra
p3825
aVnuestro
p3826
aVnueva
p3827
aVnuevaescuela
p3828
aVnuevo
p3829
aVnuevoooo
p3830
aVnugget
p3831
aVnumber
p3832
aVnumerouno
p3833
aVnun
p3834
aVnunca
p3835
aVnuov
p3836
aVnur
p3837
aVnut
p3838
aVnuther
p3839
aVnx
p3840
aVny
p3841
aVnyc
p3842
aVnyerrr
p3843
aVnymus
p3844
aVnytim
p3845
aVo
p3846
aVo_o
p3847
aVoa
p3848
aVoaxaca
p3849
aVoberfl
p3850
aVobituari
p3851
aVobjetivent
p3852
aVobnoxi
p3853
aVobscur
p3854
aVobsolet
p3855
aVobsoleto
p3856
aVobv
p3857
aVobvient
p3858
aVoc
p3859
aVoccupi
p3860
aVoccupy_wall_street
p3861
aVoccur
p3862
aVoch
p3863
aVoct
p3864
aVoctob
p3865
aVoctubr
p3866
aVocurr
p3867
aVocurriera
p3868
aVocurrir
p3869
aVod
p3870
aVodbc
p3871
aVodio
p3872
aVofensivo
p3873
aVoferecido
p3874
aVoffer
p3875
aVofff
p3876
aVoffic
p3877
aVoffice2010
p3878
aVoffici
p3879
aVofficieel
p3880
aVofficiel
p3881
aVoffiziel
p3882
aVoffiziellen
p3883
aVofflin
p3884
aVofici
p3885
aVoficialiai
p3886
aVoficialment
p3887
aVofmi
p3888
aVofrecen
p3889
aVoften
p3890
aVog
p3891
aVogalinski
p3892
aVoh
p3893
aVohio
p3894
aVohnonotagain
p3895
aVohshit
p3896
aVoja
p3897
aVojal
p3898
aVojo
p3899
aVok
p3900
aVokay
p3901
aVoki
p3902
aVoktob
p3903
aVol
p3904
aVold
p3905
aVolder
p3906
aVole
p3907
aVoleladi
p3908
aVolha
p3909
aVolsun
p3910
aVolvido
p3911
aVom
p3912
aVombestemt
p3913
aVomdat
p3914
aVomdraaien
p3915
aVome
p3916
aVomfg
p3917
aVomg
p3918
aVomni
p3919
aVomnitouch
p3920
aVomnomnomnom
p3921
aVonc
p3922
aVonda
p3923
aVonder
p3924
aVondernem
p3925
aVonderzoek
p3926
aVone
p3927
aVonez
p3928
aVonglet
p3929
aVongst
p3930
aVoni
p3931
aVonli
p3932
aVonlin
p3933
aVonnodig
p3934
aVontem
p3935
aVonthebigscreen
p3936
aVonz
p3937
aVoo
p3938
aVoof
p3939
aVooff
p3940
aVooh
p3941
aVook
p3942
aVoomf
p3943
aVoooh
p3944
aVoooooop
p3945
aVoop
p3946
aVoor
p3947
aVop
p3948
aVopcion
p3949
aVopen
p3950
aVopenlett
p3951
aVopensourc
p3952
aVopentext
p3953
aVoper
p3954
aVopgeslagen
p3955
aVopini
p3956
aVopinion
p3957
aVoportunidad
p3958
aVoportuniodad
p3959
aVopportun
p3960
aVopposit
p3961
aVoptim
p3962
aVoption
p3963
aVoracion
p3964
aVoracl
p3965
aVorang
p3966
aVoranis
p3967
aVorcera
p3968
aVordenador
p3969
aVorder
p3970
aVore
p3971
aVoreeeen
p3972
aVorg
p3973
aVorgan
p3974
aVorganis
p3975
aVorient
p3976
aVorigin
p3977
aVoriginal
p3978
aVorkut
p3979
aVos
p3980
aVosea
p3981
aVosmel
p3982
aVosx
p3983
aVother
p3984
aVotherwis
p3985
aVotra
p3986
aVotro
p3987
aVottobr
p3988
aVou
p3989
aVouaaaaaaahhhhh
p3990
aVouai
p3991
aVouch
p3992
aVount
p3993
aVoutbound
p3994
aVoutdat
p3995
aVoutfit
p3996
aVoutil
p3997
aVoutlaw
p3998
aVoutlook
p3999
aVoutsid
p4000
aVoutta
p4001
aVoutweigh
p4002
aVouvir
p4003
aVover
p4004
aVoverbear
p4005
aVovercompl
p4006
aVovereenkomst
p4007
aVoverhaul
p4008
aVoverview
p4009
aVowner
p4010
aVownership
p4011
aVoxfordshir
p4012
aVoye
p4013
aVoyendo
p4014
aVp
p4015
aVp2
p4016
aVpa
p4017
aVpaar
p4018
aVpacif
p4019
aVpack
p4020
aVpackag
p4021
aVpad
p4022
aVpaddi
p4023
aVpagaliau
p4024
aVpagar
p4025
aVpage
p4026
aVpagina
p4027
aVpai
p4028
aVpaid
p4029
aVpain
p4030
aVpainless
p4031
aVpaja
p4032
aVpajaro
p4033
aVpakt
p4034
aVpal
p4035
aVpalabra
p4036
aVpalestra
p4037
aVpall
p4038
aVpalm
p4039
aVpalomita
p4040
aVpana
p4041
aVpanason
p4042
aVpancreat
p4043
aVpanda
p4044
aVpanfleto
p4045
aVpanor
p4046
aVpanora
p4047
aVpanoriqu
p4048
aVpant
p4049
aVpantalla
p4050
aVpap
p4051
aVpapegaai
p4052
aVpaper
p4053
aVpaperboy
p4054
aVpapua
p4055
aVpar
p4056
aVpara
p4057
aVparab
p4058
aVparaben
p4059
aVparad
p4060
aVparanorm
p4061
aVparceria
p4062
aVparec
p4063
aVparecen
p4064
aVparecendo
p4065
aVparecido
p4066
aVpareja
p4067
aVparent
p4068
aVpareto
p4069
aVparfoi
p4070
aVparisian
p4071
aVpark
p4072
aVparker
p4073
aVparkour
p4074
aVparkson
p4075
aVparla
p4076
aVpartag
p4077
aVpartai
p4078
aVparti
p4079
aVparticip
p4080
aVparticipant
p4081
aVparticularli
p4082
aVpartido
p4083
aVpartner
p4084
aVpartnership
p4085
aVpartnersummit
p4086
aVpasa
p4087
aVpasada
p4088
aVpasan
p4089
aVpasando
p4090
aVpasar
p4091
aVpasatiempo
p4092
aVpase
p4093
aVpasen
p4094
aVpaso
p4095
aVpass
p4096
aVpassword
p4097
aVpast
p4098
aVpastel
p4099
aVpastor
p4100
aVpata
p4101
aVpatent
p4102
aVpathet
p4103
aVpatient
p4104
aVpato
p4105
aVpattern
p4106
aVpaul
p4107
aVpavilion
p4108
aVpay
p4109
aVpaym
p4110
aVpayment
p4111
aVpc
p4112
aVpcworld
p4113
aVpdf
p4114
aVpea
p4115
aVpeac
p4116
aVpeanut
p4117
aVpear
p4118
aVpearson
p4119
aVpedi
p4120
aVpedirl
p4121
aVpedra
p4122
aVpeepz
p4123
aVpegarl
p4124
aVpego
p4125
aVpehchan
p4126
aVpeinlich
p4127
aVpekan
p4128
aVpel
p4129
aVpela
p4130
aVpelado
p4131
aVpelea
p4132
aVpelo
p4133
aVpen
p4134
aVpendant
p4135
aVpendejada
p4136
aVpensando
p4137
aVpensar
p4138
aVpensiento
p4139
aVpenso
p4140
aVpeopl
p4141
aVpeor
p4142
aVperca
p4143
aVperceiv
p4144
aVperd
p4145
aVperdi
p4146
aVperdiendo
p4147
aVperfect
p4148
aVperfil
p4149
aVperform
p4150
aVperguntar
p4151
aVperil
p4152
aVperiod
p4153
aVperiodismodigit
p4154
aVperiodista
p4155
aVperjudici
p4156
aVperk
p4157
aVpermiss
p4158
aVpermit
p4159
aVpero
p4160
aVperpetu
p4161
aVperro
p4162
aVperson
p4163
aVpersona
p4164
aVpersonasinvi
p4165
aVpersonn
p4166
aVpertenec
p4167
aVpese
p4168
aVpessoa
p4169
aVpessoal
p4170
aVpeter
p4171
aVpetit
p4172
aVpeu
p4173
aVpeut
p4174
aVpffffff
p4175
aVpgm
p4176
aVphil
p4177
aVphilip
p4178
aVphilosoph
p4179
aVphilosophi
p4180
aVphone
p4181
aVphonerecord
p4182
aVphoto
p4183
aVphotographi
p4184
aVphotoshar
p4185
aVphr
p4186
aVphuyrg
p4187
aVphysic
p4188
aVpi
p4189
aVpiac
p4190
aVpic
p4191
aVpick
p4192
aVpictur
p4193
aVpide
p4194
aVpident
p4195
aVpido
p4196
aVpiec
p4197
aVpikki
p4198
aVpill
p4199
aVpin
p4200
aVpinbal
p4201
aVpinball_fx_2
p4202
aVpinch
p4203
aVping
p4204
aVpink
p4205
aVpinpoint
p4206
aVpinto
p4207
aVpioniq
p4208
aVpiraci
p4209
aVpirata
p4210
aVpiraten
p4211
aVpirateria
p4212
aVpiss
p4213
aVpitman
p4214
aVpittsburgh
p4215
aVpitufo
p4216
aVpixar
p4217
aVpj
p4218
aVpjd
p4219
aVpk
p4220
aVpl
p4221
aVpla
p4222
aVplace
p4223
aVplacement
p4224
aVplaintiff
p4225
aVplaisant
p4226
aVplan
p4227
aVplanet
p4228
aVplaneta
p4229
aVplank
p4230
aVplanova
p4231
aVplant
p4232
aVplantag
p4233
aVplataforma
p4234
aVplate
p4235
aVplatform
p4236
aVplatiquenm
p4237
aVplay
p4238
aVplaybook
p4239
aVplayer
p4240
aVplaylist
p4241
aVplaystat
p4242
aVplea
p4243
aVpleasant
p4244
aVplot
p4245
aVplu
p4246
aVplug
p4247
aVplugin
p4248
aVplutselig
p4249
aVplz
p4250
aVpo
p4251
aVpobr
p4252
aVpocesivo
p4253
aVpocket
p4254
aVpockettouch
p4255
aVpoco
p4256
aVpod
p4257
aVpodacst
p4258
aVpodcast
p4259
aVpode
p4260
aVpodr
p4261
aVpoh
p4262
aVpoint
p4263
aVpoir
p4264
aVpois
p4265
aVpoker
p4266
aVpokerstar
p4267
aVpol
p4268
aVpolic
p4269
aVpolici
p4270
aVpolish
p4271
aVpolitician
p4272
aVpolitik
p4273
aVpoll
p4274
aVpondr
p4275
aVpone
p4276
aVponen
p4277
aVponer
p4278
aVponerc
p4279
aVponerm
p4280
aVpongo
p4281
aVponiendo
p4282
aVpont
p4283
aVpool
p4284
aVpoooha
p4285
aVpoop
p4286
aVpoor
p4287
aVpoorli
p4288
aVpop
p4289
aVpopular
p4290
aVpopularizo
p4291
aVpoqe
p4292
aVpor
p4293
aVporchista
p4294
aVporq
p4295
aVporqu
p4296
aVporra
p4297
aVport
p4298
aVportal
p4299
aVposez
p4300
aVposibl
p4301
aVposit
p4302
aVpossibilit
p4303
aVpossibl
p4304
aVpost
p4305
aVposto
p4306
aVpotenzi
p4307
aVpour
p4308
aVpourrai
p4309
aVpouvoir
p4310
aVpovidani
p4311
aVpovo
p4312
aVpower
p4313
aVpowerlink
p4314
aVpowerpivot
p4315
aVpowerpoint
p4316
aVpp
p4317
aVppershelloapp
p4318
aVppl
p4319
aVppnat
p4320
aVpr
p4321
aVpra
p4322
aVpractic
p4323
aVprase
p4324
aVpratet
p4325
aVpraticent
p4326
aVpratiqu
p4327
aVpray
p4328
aVpre
p4329
aVprecio
p4330
aVpreciso
p4331
aVpredict
p4332
aVpreferencia
p4333
aVpregnant
p4334
aVpregunta
p4335
aVpreguntar
p4336
aVpreisstab
p4337
aVpremi
p4338
aVprend
p4339
aVprendido
p4340
aVprendio
p4341
aVprep
p4342
aVprepara
p4343
aVpresent
p4344
aVpresenta
p4345
aVpresentaci
p4346
aVpresentacion
p4347
aVpresentado
p4348
aVpresentati
p4349
aVpresentazion
p4350
aVpresento
p4351
aVpreservar
p4352
aVpresiden
p4353
aVpress
p4354
aVpressekonferenz
p4355
aVpresumen
p4356
aVpretend
p4357
aVpretendo
p4358
aVpretti
p4359
aVprettier
p4360
aVpreven
p4361
aVprevent
p4362
aVpreview
p4363
aVprevio
p4364
aVprice
p4365
aVpricepoint
p4366
aVprim
p4367
aVprima
p4368
aVprime
p4369
aVprimeira
p4370
aVprimera
p4371
aVprimero
p4372
aVprimo
p4373
aVprince_156
p4374
aVprincip
p4375
aVprioridad
p4376
aVprisa
p4377
aVprise
p4378
aVpristatyta
p4379
aVprisutn
p4380
aVprivaci
p4381
aVprivat
p4382
aVprix
p4383
aVpro
p4384
aVprobabl
p4385
aVprobando
p4386
aVprobl
p4387
aVproblem
p4388
aVproblema
p4389
aVproblemkind
p4390
aVprocess
p4391
aVprocessor
p4392
aVprocur
p4393
aVprod
p4394
aVprodmgmt
p4395
aVproduc
p4396
aVproduct
p4397
aVproducto
p4398
aVprodukt
p4399
aVprof
p4400
aVprofesor
p4401
aVprofession
p4402
aVprofil
p4403
aVprofissionalment
p4404
aVprofit
p4405
aVprofitieren
p4406
aVprofundo
p4407
aVprogr
p4408
aVprogra
p4409
aVprogress
p4410
aVprogrm
p4411
aVprogru
p4412
aVproject
p4413
aVprojector
p4414
aVprojekt
p4415
aVprolli
p4416
aVpromi
p4417
aVpromis
p4418
aVpromo
p4419
aVpromoallday
p4420
aVpromot
p4421
aVpronto
p4422
aVproof
p4423
aVprop
p4424
aVpropaganda
p4425
aVproper
p4426
aVproperli
p4427
aVpropietario
p4428
aVpropos
p4429
aVprotagonista
p4430
aVprotect
p4431
aVprototipo
p4432
aVprototyp
p4433
aVproud
p4434
aVprove
p4435
aVprovid
p4436
aVproxi
p4437
aVproxima
p4438
aVproximo
p4439
aVproyectada
p4440
aVproyecto
p4441
aVps
p4442
aVps3
p4443
aVpsn
p4444
aVpss
p4445
aVpstd
p4446
aVptm
p4447
aVpub
p4448
aVpublaunch
p4449
aVpublic
p4450
aVpublica
p4451
aVpublicli
p4452
aVpubliek
p4453
aVpuchi
p4454
aVpue
p4455
aVpued
p4456
aVpueden
p4457
aVpuedo
p4458
aVpuee
p4459
aVpulgada
p4460
aVpull
p4461
aVpuls
p4462
aVpur
p4463
aVpura
p4464
aVpurchas
p4465
aVpure
p4466
aVpurpl
p4467
aVpush
p4468
aVpuss
p4469
aVputa
p4470
aVputadr
p4471
aVputo
p4472
aVpw
p4473
aVq
p4474
aVqa
p4475
aVqdo
p4476
aVqe
p4477
aVqeriido
p4478
aVqiero
p4479
aVqn
p4480
aVqpgxle
p4481
aVqr
p4482
aVqrcode
p4483
aVqu
p4484
aVqual
p4485
aVqualch
p4486
aVqualiti
p4487
aVqualquer
p4488
aVqualsiasi
p4489
aVquando
p4490
aVquarter
p4491
aVquarterli
p4492
aVquas
p4493
aVquasi
p4494
aVque
p4495
aVquebrar
p4496
aVqueda
p4497
aVquedado
p4498
aVquedan
p4499
aVquedo
p4500
aVqueem
p4501
aVquejarm
p4502
aVquell
p4503
aVquelqu
p4504
aVquem
p4505
aVquequ
p4506
aVquer
p4507
aVqueri
p4508
aVquerida
p4509
aVquerido
p4510
aVquero
p4511
aVquestion
p4512
aVqueue
p4513
aVqui
p4514
aVquick
p4515
aVquickli
p4516
aVquiebr
p4517
aVquien
p4518
aVquier
p4519
aVquieren
p4520
aVquiero
p4521
aVquiierooo
p4522
aVquinci
p4523
aVquisiera
p4524
aVquit
p4525
aVquitar
p4526
aVquot
p4527
aVr
p4528
aVra
p4529
aVrabobank
p4530
aVrachat
p4531
aVrachel
p4532
aVracket
p4533
aVradar
p4534
aVradio
p4535
aVradiolog
p4536
aVrain
p4537
aVrais
p4538
aVralando
p4539
aVrandsteden
p4540
aVrank
p4541
aVrant
p4542
aVrape
p4543
aVraroooo
p4544
aVrart
p4545
aVratchetsymptom
p4546
aVrather
p4547
aVrato
p4548
aVrausbringen
p4549
aVraw
p4550
aVrawk
p4551
aVrayo
p4552
aVraza
p4553
aVrazanumerouno
p4554
aVrazor
p4555
aVrazr
p4556
aVrcve
p4557
aVrde
p4558
aVrdfa
p4559
aVreach
p4560
aVreaction
p4561
aVread
p4562
aVreadabl
p4563
aVreader
p4564
aVreadi
p4565
aVreadinglist
p4566
aVreal
p4567
aVrealest
p4568
aVrealis
p4569
aVrealiz
p4570
aVrealli
p4571
aVreallli
p4572
aVrealment
p4573
aVrealtim
p4574
aVreappear
p4575
aVreason
p4576
aVreboot
p4577
aVrebuild
p4578
aVrebutt
p4579
aVrecap
p4580
aVreceiv
p4581
aVrecent
p4582
aVrecess
p4583
aVrecherch
p4584
aVrecht
p4585
aVreckless
p4586
aVrecognit
p4587
aVrecomiendeno
p4588
aVreconcilia
p4589
aVreconnaiss
p4590
aVreconocimiento
p4591
aVrecord
p4592
aVrecordarm
p4593
aVrecov
p4594
aVrecruit
p4595
aVrecuerdan
p4596
aVrecuper
p4597
aVred
p4598
aVrede
p4599
aVredeem
p4600
aVredesign
p4601
aVredessocial
p4602
aVredhat
p4603
aVredimensionn
p4604
aVredirect
p4605
aVrefer
p4606
aVreflex
p4607
aVreflexion
p4608
aVreformat
p4609
aVregalado
p4610
aVregard
p4611
aVregardless
p4612
aVregent
p4613
aVregio
p4614
aVregion
p4615
aVregist
p4616
aVregistr
p4617
aVregistrado
p4618
aVregreso
p4619
aVregular
p4620
aVreiniciando
p4621
aVrelat
p4622
aVrelax
p4623
aVreleas
p4624
aVreleasepartyguid
p4625
aVrelev
p4626
aVreli
p4627
aVreliabl
p4628
aVreller
p4629
aVrema
p4630
aVremain
p4631
aVremak
p4632
aVrememb
p4633
aVremind
p4634
aVremot
p4635
aVremov
p4636
aVremport
p4637
aVremu
p4638
aVrenda
p4639
aVrender
p4640
aVrene
p4641
aVrenew
p4642
aVrenovar
p4643
aVrep
p4644
aVrepair
p4645
aVrepeat
p4646
aVrepen
p4647
aVreplac
p4648
aVrepletoooo
p4649
aVrepli
p4650
aVreport
p4651
aVrepost
p4652
aVreppin
p4653
aVreprisk
p4654
aVrepublish
p4655
aVrequest
p4656
aVrequir
p4657
aVresearch
p4658
aVresel
p4659
aVresentida
p4660
aVreserv
p4661
aVresetearlo
p4662
aVreshap
p4663
aVresller
p4664
aVresolut
p4665
aVresolv
p4666
aVreson
p4667
aVresourc
p4668
aVresp
p4669
aVrespect
p4670
aVrespecto
p4671
aVrespekt
p4672
aVrespond
p4673
aVrespons
p4674
aVrespuesta
p4675
aVrest
p4676
aVresta
p4677
aVrestor
p4678
aVrestrict
p4679
aVresult
p4680
aVresultado
p4681
aVresumen
p4682
aVretail
p4683
aVretard
p4684
aVretina
p4685
aVretir
p4686
aVretiro
p4687
aVretriev
p4688
aVreturn
p4689
aVretweet
p4690
aVreuter
p4691
aVreveal
p4692
aVrevel
p4693
aVrevela
p4694
aVrevenu
p4695
aVrevers
p4696
aVrevert
p4697
aVreview
p4698
aVreviora
p4699
aVrevis
p4700
aVrevolut
p4701
aVrevp
p4702
aVrevu
p4703
aVreward
p4704
aVrewardhub
p4705
aVrewind
p4706
aVrhce
p4707
aVria
p4708
aVrica
p4709
aVricerca
p4710
aVrich
p4711
aVricher
p4712
aVridic
p4713
aVrienc
p4714
aVright
p4715
aVrilancia
p4716
aVrim
p4717
aVrimm
p4718
aVring
p4719
aVriod
p4720
aVrip
p4721
aVripstev
p4722
aVrisa
p4723
aVrite
p4724
aVritenow
p4725
aVrival
p4726
aVrkiy
p4727
aVrli
p4728
aVrm
p4729
aVrmet
p4730
aVro
p4731
aVroad
p4732
aVroadmap
p4733
aVroast
p4734
aVroba
p4735
aVrobot
p4736
aVroboto
p4737
aVrock
p4738
aVrohit
p4739
aVroi
p4740
aVrole
p4741
aVroll
p4742
aVrom
p4743
aVrompan
p4744
aVron
p4745
aVronda
p4746
aVroom
p4747
aVroot
p4748
aVroslyn
p4749
aVrotfl
p4750
aVrotita
p4751
aVrough
p4752
aVround
p4753
aVroupa
p4754
aVrow
p4755
aVrpg
p4756
aVrrhh
p4757
aVrrp
p4758
aVrs
p4759
aVrsna
p4760
aVrsrsr
p4761
aVrss
p4762
aVrt
p4763
aVru
p4764
aVrubik
p4765
aVrubin
p4766
aVrubriqu
p4767
aVruin
p4768
aVrule
p4769
aVrumor
p4770
aVrun
p4771
aVrusku
p4772
aVrussia
p4773
aVrusza
p4774
aVrva
p4775
aVrve
p4776
aVrww
p4777
aVs
p4778
aVs2
p4779
aVsa
p4780
aVsaaindo
p4781
aVsaale
p4782
aVsab
p4783
aVsabe
p4784
aVsaben
p4785
aVsabia
p4786
aVsacada
p4787
aVsacarlo
p4788
aVsacarm
p4789
aVsachbearbeit
p4790
aVsad
p4791
aVsadmac
p4792
aVsadreal
p4793
aVsafari
p4794
aVsafe
p4795
aVsafeti
p4796
aVsage
p4797
aVsagr
p4798
aVsai
p4799
aVsaid
p4800
aVsaindo
p4801
aVsaint
p4802
aVsair
p4803
aVsake
p4804
aVsale
p4805
aVsalesforc
p4806
aVsalir
p4807
aVsalmonella
p4808
aVsaludment
p4809
aVsaludo
p4810
aVsaludoss
p4811
aVsalut
p4812
aVsalv
p4813
aVsan
p4814
aVsandra
p4815
aVsandwich
p4816
aVsandwicho
p4817
aVsansung
p4818
aVsanta
p4819
aVsanto
p4820
aVsantorum
p4821
aVsanwikipedia
p4822
aVsap
p4823
aVsapgateway
p4824
aVsaptech
p4825
aVsarcasm
p4826
aVsarcasmo
p4827
aVsat
p4828
aVsaturando
p4829
aVsaturdaycut
p4830
aVsaudad
p4831
aVsaudadeee
p4832
aVsausagefest
p4833
aVsave
p4834
aVsavoir
p4835
aVsaw
p4836
aVsay
p4837
aVsbi
p4838
aVsc
p4839
aVscalabl
p4840
aVscale
p4841
aVschaub
p4842
aVschedul
p4843
aVschen
p4844
aVschiphol
p4845
aVschock
p4846
aVschon
p4847
aVschool
p4848
aVschouder
p4849
aVscienc
p4850
aVscientist
p4851
aVscimmia
p4852
aVscom
p4853
aVscond
p4854
aVscore
p4855
aVscrappl
p4856
aVscre
p4857
aVscreen
p4858
aVscreenshot
p4859
aVscrew
p4860
aVscroll
p4861
aVscvmm
p4862
aVsdk
p4863
aVse
p4864
aVsea
p4865
aVseahawkswag
p4866
aVseal
p4867
aVsean
p4868
aVsearay
p4869
aVsearch
p4870
aVsearchengin
p4871
aVseason
p4872
aVsec
p4873
aVsec1802
p4874
aVsecond
p4875
aVsecreto
p4876
aVsecretoo
p4877
aVsection
p4878
aVsecur
p4879
aVsede
p4880
aVseek
p4881
aVseen
p4882
aVseg
p4883
aVsegu
p4884
aVsegui
p4885
aVseguidor
p4886
aVseguir
p4887
aVsegun
p4888
aVsegunda
p4889
aVsegur
p4890
aVseguridadparatodo
p4891
aVsehr
p4892
aVseit
p4893
aVsejahtera
p4894
aVselangor
p4895
aVselben
p4896
aVselecto
p4897
aVselektiv
p4898
aVselessli
p4899
aVself
p4900
aVsell
p4901
aVsem
p4902
aVsemana
p4903
aVsembl
p4904
aVsemejant
p4905
aVsen
p4906
aVsend
p4907
aVsenew
p4908
aVsenior
p4909
aVsens
p4910
aVsensibl
p4911
aVsent
p4912
aVsentenc
p4913
aVsentimiento
p4914
aVsentindo
p4915
aVseo
p4916
aVseotip
p4917
aVseptemb
p4918
aVsequenc
p4919
aVser
p4920
aVsergey
p4921
aVseri
p4922
aVserient
p4923
aVseriou
p4924
aVserious
p4925
aVserp
p4926
aVserv
p4927
aVserver
p4928
aVserveru
p4929
aVservi
p4930
aVservic
p4931
aVservicepack
p4932
aVservicio
p4933
aVservir
p4934
aVservizio
p4935
aVsesestreet
p4936
aVsession
p4937
aVsessioni
p4938
aVset
p4939
aVsetelah
p4940
aVsettl
p4941
aVsettlement
p4942
aVsetup
p4943
aVseven
p4944
aVsever
p4945
aVsex
p4946
aVsf
p4947
aVsfida
p4948
aVsh
p4949
aVshada
p4950
aVshair
p4951
aVshanghai
p4952
aVshare
p4953
aVsharepoint
p4954
aVshari
p4955
aVsheet
p4956
aVshift
p4957
aVship
p4958
aVshirt
p4959
aVshit
p4960
aVshld
p4961
aVshlessselfpromot
p4962
aVshop
p4963
aVshopper
p4964
aVshore
p4965
aVshort
p4966
aVshot
p4967
aVshout
p4968
aVshoutout
p4969
aVshower
p4970
aVshrewd
p4971
aVshuffl
p4972
aVshut
p4973
aVshutter
p4974
aVsi
p4975
aVsiapkan
p4976
aVsica
p4977
aVsich
p4978
aVsick
p4979
aVside
p4980
aVsido
p4981
aVsie
p4982
aVsieh
p4983
aVsiempr
p4984
aVsiento
p4985
aVsig
p4986
aVsiga
p4987
aVsigan
p4988
aVsiglo
p4989
aVsign
p4990
aVsignal
p4991
aVsignup
p4992
aVsigo
p4993
aVsigsourc
p4994
aVsigu
p4995
aVsiguemeytesigo
p4996
aVsii
p4997
aVsikkerhet
p4998
aVsilicon
p4999
aVsilli
p5000
aVsilver
p5001
aVsimilar
p5002
aVsimpl
p5003
aVsimpleth
p5004
aVsimpli
p5005
aVsimplic
p5006
aVsin
p5007
aVsinc
p5008
aVsinceri
p5009
aVsincronizaci
p5010
aVsincronizar
p5011
aVsind
p5012
aVsing
p5013
aVsingapor
p5014
aVsingl
p5015
aVsink
p5016
aVsio
p5017
aVsipcom
p5018
aVsiri
p5019
aVsiriwho
p5020
aVsirv
p5021
aVsise
p5022
aVsistema
p5023
aVsister
p5024
aVsit
p5025
aVsite
p5026
aVsitio
p5027
aVsituat
p5028
aVsize
p5029
aVsk
p5030
aVska
p5031
aVskill
p5032
aVskittl
p5033
aVskullgang
p5034
aVskype
p5035
aVsl
p5036
aVslack
p5037
aVslap
p5038
aVslappi
p5039
aVslash
p5040
aVsledgehm
p5041
aVsleeep
p5042
aVsleep
p5043
aVsleeptight
p5044
aVslegit
p5045
aVslew
p5046
aVslightli
p5047
aVslogan
p5048
aVsloppi
p5049
aVslow
p5050
aVslower
p5051
aVslowli
p5052
aVslp
p5053
aVsm
p5054
aVsmall
p5055
aVsmallbiz
p5056
aVsmart
p5057
aVsmarterphon
p5058
aVsmartest
p5059
aVsmartphon
p5060
aVsmash
p5061
aVsmau
p5062
aVsmb
p5063
aVsmell
p5064
aVsmh
p5065
aVsmile
p5066
aVsmm
p5067
aVsmooth
p5068
aVsn
p5069
aVsnapt
p5070
aVsnaptu
p5071
aVsnatch
p5072
aVsneaki
p5073
aVsnel
p5074
aVsnippet
p5075
aVsnom
p5076
aVsoa
p5077
aVsoaddict
p5078
aVsoak
p5079
aVsobr
p5080
aVsobrevivir
p5081
aVsocapac11
p5082
aVsocia
p5083
aVsocial
p5084
aVsocialmedia
p5085
aVsocialnetwork
p5086
aVsocialshareprivaci
p5087
aVsocieti
p5088
aVsocio
p5089
aVsoez
p5090
aVsofort
p5091
aVsoft
p5092
aVsoftlin
p5093
aVsoftwar
p5094
aVsoftwarelibr
p5095
aVsoftwareverteilung
p5096
aVsogeti
p5097
aVsoit
p5098
aVsolar
p5099
aVsolco
p5100
aVsold
p5101
aVsolent
p5102
aVsolo
p5103
aVsolu
p5104
aVsolucion
p5105
aVsolut
p5106
aVsoluti
p5107
aVsolv
p5108
aVsome
p5109
aVsome1
p5110
aVsomebodi
p5111
aVsomo
p5112
aVson
p5113
aVsong
p5114
aVsoni
p5115
aVsonic
p5116
aVsono
p5117
aVsont
p5118
aVsoon
p5119
aVsooner
p5120
aVsooo
p5121
aVsoooo
p5122
aVsoooooo
p5123
aVsopa
p5124
aVsophist
p5125
aVsoport
p5126
aVsorprend
p5127
aVsorpresa
p5128
aVsorri
p5129
aVsorrident
p5130
aVsorryfollow
p5131
aVsort
p5132
aVsorud
p5133
aVsou
p5134
aVsougo
p5135
aVsougofollow
p5136
aVsound
p5137
aVsourc
p5138
aVsourir
p5139
aVsouthern
p5140
aVsoy
p5141
aVsp
p5142
aVspa
p5143
aVspace
p5144
aVspain
p5145
aVspanish
p5146
aVspare
p5147
aVspat
p5148
aVspd
p5149
aVspeak
p5150
aVspeaker
p5151
aVspec
p5152
aVspecialist
p5153
aVspecifi
p5154
aVspectaculair
p5155
aVspectechular
p5156
aVspecter
p5157
aVspeech
p5158
aVspeechtran
p5159
aVspell
p5160
aVspend
p5161
aVspent
p5162
aVspezialist
p5163
aVspi
p5164
aVspiel
p5165
aVspigot
p5166
aVspin
p5167
aVspiral
p5168
aVspmi
p5169
aVspoil
p5170
aVspoke
p5171
aVspontan
p5172
aVspookygoogl
p5173
aVsport
p5174
aVspot
p5175
aVspotifi
p5176
aVspring
p5177
aVsprint
p5178
aVspywar
p5179
aVsql
p5180
aVsqlpass
p5181
aVsqlserver
p5182
aVsquar
p5183
aVsqueda
p5184
aVsr
p5185
aVsselt
p5186
aVssige
p5187
aVssl
p5188
aVssumg
p5189
aVssun
p5190
aVssung
p5191
aVssungnexu
p5192
aVst
p5193
aVsta
p5194
aVstaat
p5195
aVstabiel
p5196
aVstabl
p5197
aVstack
p5198
aVstadtr
p5199
aVstaf
p5200
aVstaff
p5201
aVstage
p5202
aVstalk
p5203
aVstalkerismo
p5204
aVstand
p5205
aVstandard
p5206
aVstap
p5207
aVstar
p5208
aVstarbuck
p5209
aVstare
p5210
aVstart
p5211
aVstartpack
p5212
aVstartup
p5213
aVstate
p5214
aVstatement
p5215
aVstation
p5216
aVstatistiqu
p5217
aVstatt
p5218
aVstatus
p5219
aVstatussen
p5220
aVstavaza
p5221
aVstay
p5222
aVste
p5223
aVsteed
p5224
aVsteffen
p5225
aVsteht
p5226
aVstellen
p5227
aVstellt
p5228
aVstep
p5229
aVsterd
p5230
aVsterodu
p5231
aVsterreich
p5232
aVsteve
p5233
aVsteve_b
p5234
aVsteve_ballm
p5235
aVsteveballm
p5236
aVsteveballmet
p5237
aVstevejob
p5238
aVstevejobsday
p5239
aVstewart
p5240
aVstica
p5241
aVstick
p5242
aVsticker
p5243
aVsticki
p5244
aVstill
p5245
aVstilllearn
p5246
aVstimulera
p5247
aVsto
p5248
aVstock
p5249
aVstop
p5250
aVstoppen
p5251
aVstorag
p5252
aVstore
p5253
aVstoree
p5254
aVstori
p5255
aVstraight
p5256
aVstrait
p5257
aVstrang
p5258
aVstranger
p5259
aVstrangest
p5260
aVstrat
p5261
aVstrategi
p5262
aVstravi
p5263
aVstravinski
p5264
aVstre
p5265
aVstreet
p5266
aVstrengthen
p5267
aVstress
p5268
aVstrong
p5269
aVstronger
p5270
aVstrongli
p5271
aVstructur
p5272
aVstruggl
p5273
aVstuck
p5274
aVstudent
p5275
aVstudi
p5276
aVstudio
p5277
aVstudyingwhilstmotiv
p5278
aVstuff
p5279
aVstupid
p5280
aVstyle
p5281
aVstylu
p5282
aVsu
p5283
aVsua
p5284
aVsuavi
p5285
aVsubatomica
p5286
aVsubjetivent
p5287
aVsubmit
p5288
aVsubscrib
p5289
aVsubscript
p5290
aVsubstitut
p5291
aVsuccess
p5292
aVsucesso
p5293
aVsuchpartn
p5294
aVsuck
p5295
aVsucker
p5296
aVsudden
p5297
aVsuddenli
p5298
aVsudra
p5299
aVsue
p5300
aVsuffer
p5301
aVsufrir
p5302
aVsugar
p5303
aVsuggest
p5304
aVsuit
p5305
aVsuivent
p5306
aVsuivez
p5307
aVsukc
p5308
aVsul
p5309
aVsum
p5310
aVsumandoo
p5311
aVsumbo
p5312
aVsumbodi
p5313
aVsumiu
p5314
aVsumiuuuuuuuuuuuuuuu
p5315
aVsummari
p5316
aVsummer
p5317
aVsummit
p5318
aVsun
p5319
aVsunaa
p5320
aVsunday
p5321
aVsunt
p5322
aVsuper
p5323
aVsuperbo
p5324
aVsuperfici
p5325
aVsuperior
p5326
aVsupport
p5327
aVsupportnya
p5328
aVsuppos
p5329
aVsuppppp
p5330
aVsupprim
p5331
aVsuprem
p5332
aVsur
p5333
aVsure
p5334
aVsurfac
p5335
aVsurfact
p5336
aVsurpris
p5337
aVsurvei
p5338
aVsuscripcion
p5339
aVsushi
p5340
aVsux
p5341
aVsverig
p5342
aVswaag
p5343
aVswallow
p5344
aVswap
p5345
aVswear
p5346
aVsweatshop
p5347
aVsweet
p5348
aVswipant
p5349
aVswipe
p5350
aVswirlz
p5351
aVswitch
p5352
aVswpat
p5353
aVswype
p5354
aVsy
p5355
aVsydney
p5356
aVsymbian
p5357
aVsympa
p5358
aVsympathisch
p5359
aVsync
p5360
aVsynch
p5361
aVsynchroni
p5362
aVsyncron
p5363
aVsyst
p5364
aVsysteembeheerd
p5365
aVsystemcent
p5366
aVszansa
p5367
aVt
p5368
aVt_t
p5369
aVta
p5370
aVtaa
p5371
aVtab
p5372
aVtabl
p5373
aVtablet
p5374
aVtacoma
p5375
aVtactil
p5376
aVtademoda
p5377
aVtag
p5378
aVtagochi
p5379
aVtaguer
p5380
aVtah
p5381
aVtake
p5382
aVtaken
p5383
aVtakeov
p5384
aVtalent
p5385
aVtalk
p5386
aVtall
p5387
aVtallgrass
p5388
aVtan
p5389
aVtango
p5390
aVtanta
p5391
aVtanto
p5392
aVtao
p5393
aVtap
p5394
aVtarda
p5395
aVtardan
p5396
aVtarde
p5397
aVtarea
p5398
aVtarget
p5399
aVtarjeta
p5400
aVtask
p5401
aVtast
p5402
aVtasti
p5403
aVtavaa
p5404
aVtax
p5405
aVtb
p5406
aVtbi
p5407
aVtbon
p5408
aVtcn
p5409
aVtcot
p5410
aVte
p5411
aVtear
p5412
aVteas
p5413
aVteaser
p5414
aVtech
p5415
aVtech_ar
p5416
aVtechedafrica
p5417
aVtechgadget
p5418
aVtechi
p5419
aVtechietroubl
p5420
aVtechnet
p5421
aVtechnew
p5422
aVtechnic
p5423
aVtechnieken
p5424
aVtechniqu
p5425
aVtechnisch
p5426
aVtechno
p5427
aVtechnolog
p5428
aVtechsupport
p5429
aVtechwar
p5430
aVteclado
p5431
aVtecnich
p5432
aVtecnifi
p5433
aVtecnol
p5434
aVtecnolog
p5435
aVtecnologia
p5436
aVteed
p5437
aVteehe
p5438
aVteenpatti
p5439
aVtefollow
p5440
aVtefollowback
p5441
aVtegnologia
p5442
aVtegooglenexu
p5443
aVteiphon
p5444
aVteknolojisini
p5445
aVtekstaanvul
p5446
aVtel
p5447
aVtela
p5448
aVtele
p5449
aVtelefono
p5450
aVtelefoon
p5451
aVtelegraph
p5452
aVtell
p5453
aVtellm
p5454
aVtelnumm
p5455
aVtem
p5456
aVtema
p5457
aVtemasek
p5458
aVtement
p5459
aVtemp
p5460
aVtempi
p5461
aVtempo
p5462
aVtendencia
p5463
aVtender
p5464
aVtendr
p5465
aVtendremo
p5466
aVtendu
p5467
aVtenemo
p5468
aVtener
p5469
aVtengan
p5470
aVtengo
p5471
aVtenho
p5472
aVtenia
p5473
aVtenido
p5474
aVteniia
p5475
aVtentar
p5476
aVteo
p5477
aVteomita
p5478
aVter
p5479
aVterceiro
p5480
aVterm
p5481
aVtermin
p5482
aVtermina
p5483
aVterminar
p5484
aVtermino
p5485
aVternurita
p5486
aVterra
p5487
aVterribl
p5488
aVtersangka
p5489
aVterug
p5490
aVtest
p5491
aVtester
p5492
aVtestifi
p5493
aVtestificar
p5494
aVtestimoni
p5495
aVteu
p5496
aVtexa
p5497
aVtext
p5498
aVtf
p5499
aVtfb
p5500
aVtha
p5501
aVthailand
p5502
aVthank
p5503
aVthanksfornoth
p5504
aVthanksgod
p5505
aVthanx
p5506
aVthatsdisrespect
p5507
aVtheft
p5508
aVthelegionofthefallen
p5509
aVthema
p5510
aVtheme
p5511
aVtheoldway
p5512
aVtheoret
p5513
aVthere
p5514
aVthese
p5515
aVthetechcheck
p5516
aVthiel
p5517
aVthigh
p5518
aVthing
p5519
aVthingswealllov
p5520
aVthink
p5521
aVthirsti
p5522
aVthise
p5523
aVthnx
p5524
aVtho
p5525
aVthoma
p5526
aVthorn
p5527
aVthose
p5528
aVthought
p5529
aVthread
p5530
aVthreat
p5531
aVthreaten
p5532
aVthrew
p5533
aVthrow
p5534
aVthug
p5535
aVthunderbird
p5536
aVthunderbolt
p5537
aVthursday
p5538
aVthx
p5539
aVthxx
p5540
aVthyself
p5541
aVti
p5542
aVtic
p5543
aVtica
p5544
aVtiempo
p5545
aVtien
p5546
aVtienda
p5547
aVtienen
p5548
aVtienta
p5549
aVtierno
p5550
aVtig
p5551
aVtiger
p5552
aVtighten
p5553
aVtigt
p5554
aVtil
p5555
aVtile
p5556
aVtill
p5557
aVtim
p5558
aVtime
p5559
aVtimecapsul
p5560
aVtimelin
p5561
aVtimewarnerc
p5562
aVtin
p5563
aVtint
p5564
aVtip
p5565
aVtipp
p5566
aVtira
p5567
aVtire
p5568
aVtitan
p5569
aVtitl
p5570
aVtitrer
p5571
aVtittelen
p5572
aVtja
p5573
aVtlow
p5574
aVtmb
p5575
aVtmw
p5576
aVtnjuter
p5577
aVtobillo
p5578
aVtoch
p5579
aVtocompl
p5580
aVtod
p5581
aVtoda
p5582
aVtoday
p5583
aVtodd
p5584
aVtodo
p5585
aVtok
p5586
aVtold
p5587
aVtom
p5588
aVtomorrow
p5589
aVton
p5590
aVtonc
p5591
aVtone
p5592
aVtonight
p5593
aVtoocool
p5594
aVtook
p5595
aVtool
p5596
aVtoolbar
p5597
aVtopic
p5598
aVtosleepigo
p5599
aVtoss
p5600
aVtot
p5601
aVtotal
p5602
aVtou
p5603
aVtouch
p5604
aVtouchf
p5605
aVtouchm
p5606
aVtouchpoint
p5607
aVtouchscreen
p5608
aVtough
p5609
aVtoulous
p5610
aVtour
p5611
aVtournent
p5612
aVtout
p5613
aVtowhat
p5614
aVtown
p5615
aVtoy
p5616
aVtpa
p5617
aVtr
p5618
aVtra
p5619
aVtrabado
p5620
aVtrabaj
p5621
aVtrabajar
p5622
aVtrabalho
p5623
aVtrack
p5624
aVtrade
p5625
aVtradepromot
p5626
aVtraducido
p5627
aVtraen
p5628
aVtraer
p5629
aVtraffic
p5630
aVtrain
p5631
aVtrainer
p5632
aVtrainingen
p5633
aVtraje
p5634
aVtraject
p5635
aVtranquila
p5636
aVtranscribirlo
p5637
aVtransform
p5638
aVtransici
p5639
aVtransit
p5640
aVtranslat
p5641
aVtransmiten
p5642
aVtrapt
p5643
aVtrash
p5644
aVtrashier
p5645
aVtrava
p5646
aVtravel
p5647
aVtre
p5648
aVtree
p5649
aVtrend
p5650
aVtreuhand
p5651
aVtri
p5652
aVtrial
p5653
aVtribun
p5654
aVtribut
p5655
aVtrick
p5656
aVtrip
p5657
aVtripl
p5658
aVtripletown
p5659
aVtrist
p5660
aVtrivia
p5661
aVtro
p5662
aVtroca
p5663
aVtron
p5664
aVtronman
p5665
aVtrot
p5666
aVtroubl
p5667
aVtroublemak
p5668
aVtrounc
p5669
aVtrovarci
p5670
aVtroy
p5671
aVtruc
p5672
aVtrue
p5673
aVtruestori
p5674
aVtruli
p5675
aVtryna
p5676
aVtshirt
p5677
aVtsk
p5678
aVtt
p5679
aVttem
p5680
aVttinha
p5681
aVtu
p5682
aVtube
p5683
aVtudo
p5684
aVtuesday
p5685
aVtumbl
p5686
aVtumblr
p5687
aVtune
p5688
aVtunef
p5689
aVtunisi
p5690
aVtunisienew
p5691
aVturismo
p5692
aVturn
p5693
aVtussen
p5694
aVtuu
p5695
aVtuviera
p5696
aVtv
p5697
aVtvbox
p5698
aVtweep
p5699
aVtweet
p5700
aVtweetcast
p5701
aVtweetdeck
p5702
aVtweetoff
p5703
aVtweezard
p5704
aVtwhistler
p5705
aVtwic
p5706
aVtwiceiphone4sal
p5707
aVtwidroyd
p5708
aVtwit
p5709
aVtwit2alsh
p5710
aVtwitoma
p5711
aVtwitpeep
p5712
aVtwitt
p5713
aVtwittea
p5714
aVtwitter
p5715
aVtwitterapp
p5716
aVtwitterem
p5717
aVtwittern
p5718
aVtwittero
p5719
aVtwitteroff
p5720
aVtwitterrooki
p5721
aVtwitterswag
p5722
aVtwittertim
p5723
aVtwittertip
p5724
aVtwittoma
p5725
aVtwoja
p5726
aVtxt
p5727
aVty
p5728
aVtyfusverspreid
p5729
aVtym
p5730
aVtype
p5731
aVtypebuild
p5732
aVtzenswert
p5733
aVu
p5734
aVuber
p5735
aVuberso
p5736
aVubersoci
p5737
aVubuntu
p5738
aVuc
p5739
aVucexpo
p5740
aVuch
p5741
aVucom
p5742
aVuefi
p5743
aVuff
p5744
aVufff
p5745
aVugh
p5746
aVughh
p5747
aVugli
p5748
aVugurlu
p5749
aVuh
p5750
aVuhmw
p5751
aVuhr
p5752
aVui
p5753
aVuick
p5754
aVuii
p5755
aVuiiii
p5756
aVuit
p5757
aVuitbouwen
p5758
aVuitdagend
p5759
aVuitgehaald
p5760
aVuk
p5761
aVulforthewin
p5762
aVulterior
p5763
aVultim
p5764
aVultimo
p5765
aVum
p5766
aVuma
p5767
aVumbrella
p5768
aVumd
p5769
aVumelink
p5770
aVumm
p5771
aVumsatzgarantien
p5772
aVuna
p5773
aVunabl
p5774
aVunauthor
p5775
aVunbeliev
p5776
aVunblock
p5777
aVunborn
p5778
aVuncategor
p5779
aVundecid
p5780
aVunder
p5781
aVundergo
p5782
aVunderplay
p5783
aVunderr
p5784
aVunderstand
p5785
aVunderwhelm
p5786
aVundo
p5787
aVundoubtedli
p5788
aVune
p5789
aVunen
p5790
aVunerwartetem
p5791
aVunexpect
p5792
aVunfair
p5793
aVunfollow
p5794
aVunfortun
p5795
aVunhappi
p5796
aVunido
p5797
aVunifi
p5798
aVunit
p5799
aVunivers
p5800
aVunknown
p5801
aVunless
p5802
aVunlik
p5803
aVunlock
p5804
aVuno
p5805
aVunproduct
p5806
aVunter
p5807
aVunterst
p5808
aVunveil
p5809
aVunwrap
p5810
aVupcom
p5811
aVupdat
p5812
aVupgrad
p5813
aVupgraden
p5814
aVuphil
p5815
aVupload
p5816
aVupset
p5817
aVupsidedown
p5818
aVur
p5819
aVurl
p5820
aVurlar
p5821
aVurwelcom
p5822
aVusa
p5823
aVusabilidad
p5824
aVusabl
p5825
aVusag
p5826
aVusagi
p5827
aVusan
p5828
aVusando
p5829
aVusar
p5830
aVusara
p5831
aVusarlo
p5832
aVusava
p5833
aVuse
p5834
aVuseless
p5835
aVuser
p5836
aVusnya
p5837
aVusoandroid
p5838
aVust
p5839
aVusual
p5840
aVusuario
p5841
aVutil
p5842
aVutili
p5843
aVutilis
p5844
aVutilisateur
p5845
aVutiliza
p5846
aVutilizado
p5847
aVutilizar
p5848
aVutter
p5849
aVux
p5850
aVuz
p5851
aVv
p5852
aVva
p5853
aVvacatur
p5854
aVvacia
p5855
aVvagina
p5856
aVvai
p5857
aVvale
p5858
aVvaleloka
p5859
aVvalid
p5860
aVvalley
p5861
aVvalor
p5862
aVvalorada
p5863
aVvaluabl
p5864
aVvan
p5865
aVvancouv
p5866
aVvandaag
p5867
aVvanmiddag
p5868
aVvar
p5869
aVvarf
p5870
aVvarieti
p5871
aVvario
p5872
aVvaron
p5873
aVvast
p5874
aVvat
p5875
aVvaya
p5876
aVvc
p5877
aVve
p5878
aVvea
p5879
aVvean
p5880
aVvece
p5881
aVveel
p5882
aVvehicl
p5883
aVvel
p5884
aVvelho
p5885
aVvelopp
p5886
aVvemo
p5887
aVvend
p5888
aVvendeur
p5889
aVvendido
p5890
aVvendroid
p5891
aVvenit
p5892
aVventa
p5893
aVventur
p5894
aVveo
p5895
aVver
p5896
aVvera
p5897
aVverb
p5898
aVverbessern
p5899
aVverdd
p5900
aVverder
p5901
aVveremo
p5902
aVverf
p5903
aVvergrootgla
p5904
aVverhaal
p5905
aVveri
p5906
aVverizon
p5907
aVverkocht
p5908
aVverkoop
p5909
aVverl
p5910
aVverleden
p5911
aVverloren
p5912
aVvernieuwend
p5913
aVverschl
p5914
aVversion
p5915
aVversjon
p5916
aVvert
p5917
aVvertic
p5918
aVverwachtingovertreffen
p5919
aVverwaltung
p5920
aVverwandelt
p5921
aVverzoek
p5922
aVvez
p5923
aVvfacebook
p5924
aVvi
p5925
aVvibrar
p5926
aVvibrat
p5927
aVvibro
p5928
aVvic
p5929
aVviciada
p5930
aVviciado
p5931
aVvicio
p5932
aVvicioooooo
p5933
aVvictim
p5934
aVvictima
p5935
aVvid
p5936
aVvida
p5937
aVvideo
p5938
aVvideollada
p5939
aVvidio
p5940
aVvie
p5941
aVviel
p5942
aVvien
p5943
aVvieron
p5944
aVview
p5945
aVvijinit
p5946
aVvil
p5947
aVvile
p5948
aVvillag
p5949
aVvincent
p5950
aVviolat
p5951
aVviolenc
p5952
aVvip
p5953
aVvirag
p5954
aVvirtual
p5955
aVvirtualiza
p5956
aVvirtualsystem
p5957
aVviru
p5958
aVvisi
p5959
aVvisibl
p5960
aVvisigoth
p5961
aVvision
p5962
aVvisit
p5963
aVvistazo
p5964
aVvisto
p5965
aVvisual
p5966
aVvisualstudio
p5967
aVvital
p5968
aVvite
p5969
aVvittoria
p5970
aVviu
p5971
aVviva
p5972
aVvivablackberri
p5973
aVvivido
p5974
aVvivir
p5975
aVvlieg
p5976
aVvlingo
p5977
aVvm
p5978
aVvmi
p5979
aVvmware
p5980
aVvmworld
p5981
aVvmworld2011
p5982
aVvo
p5983
aVvoc
p5984
aVvocal
p5985
aVvoce
p5986
aVvodi
p5987
aVvoglio
p5988
aVvoi
p5989
aVvoic
p5990
aVvoicecontrol
p5991
aVvoicemail
p5992
aVvoici
p5993
aVvoii
p5994
aVvoil
p5995
aVvoip
p5996
aVvoir
p5997
aVvolgen
p5998
aVvolgend
p5999
aVvolta
p6000
aVvoltoo
p6001
aVvolum
p6002
aVvolver
p6003
aVvolviendos
p6004
aVvolviiendoo
p6005
aVvom
p6006
aVvon
p6007
aVvoo
p6008
aVvoor
p6009
aVvooz
p6010
aVvor
p6011
aVvorbereitet
p6012
aVvorgestellt
p6013
aVvorstellung
p6014
aVvort
p6015
aVvorteil
p6016
aVvoss
p6017
aVvote
p6018
aVvotr
p6019
aVvou
p6020
aVvoucher
p6021
aVvoulez
p6022
aVvoy
p6023
aVvoz
p6024
aVvraag
p6025
aVvraagt
p6026
aVvrai
p6027
aVvrij
p6028
aVvs
p6029
aVvslive
p6030
aVvuelta
p6031
aVvuoi
p6032
aVvv
p6033
aVw
p6034
aVwa
p6035
aVwaaaaay
p6036
aVwaaaay
p6037
aVwaar
p6038
aVwaardeloo
p6039
aVwaarder
p6040
aVwack
p6041
aVwait
p6042
aVwake
p6043
aVwalk
p6044
aVwall
p6045
aVwallet
p6046
aVwallpap
p6047
aVwank
p6048
aVwanna
p6049
aVwant
p6050
aVwar
p6051
aVware
p6052
aVwarfar
p6053
aVwari
p6054
aVwarn
p6055
aVwarranti
p6056
aVwarum
p6057
aVwash
p6058
aVwashington
p6059
aVwasn
p6060
aVwass
p6061
aVwast
p6062
aVwat
p6063
aVwatch
p6064
aVwater
p6065
aVwatson
p6066
aVwave
p6067
aVway
p6068
aVwayn
p6069
aVweaken
p6070
aVwearabl
p6071
aVweather
p6072
aVweb
p6073
aVwebc
p6074
aVwebcast
p6075
aVwebgl
p6076
aVwebhostingcoupon
p6077
aVwebinar
p6078
aVwebmast
p6079
aVwebmatrix
p6080
aVwebo
p6081
aVwebpag
p6082
aVwebpronew
p6083
aVwebshop
p6084
aVwebsit
p6085
aVwebsitespark
p6086
aVwebwinkel
p6087
aVwecker
p6088
aVwednesday
p6089
aVweek
p6090
aVweekend
p6091
aVweer
p6092
aVweetapplehetaltijdbet
p6093
aVweg
p6094
aVweird
p6095
aVweiterhin
p6096
aVwelchen
p6097
aVwelcom
p6098
aVwelcome
p6099
aVwelcometotwitt
p6100
aVwelcum
p6101
aVwell
p6102
aVwendywilli
p6103
aVwenig
p6104
aVwenn
p6105
aVwent
p6106
aVwerd
p6107
aVwere
p6108
aVweren
p6109
aVwerk
p6110
aVwerken
p6111
aVwest
p6112
aVweten
p6113
aVwhaddupwitdat
p6114
aVwhale
p6115
aVwhatsapp
p6116
aVwheat
p6117
aVwhere
p6118
aVwhether
p6119
aVwhi
p6120
aVwhile
p6121
aVwhite
p6122
aVwhoa
p6123
aVwhole
p6124
aVwhore
p6125
aVwht
p6126
aVwhymsft
p6127
aVwi
p6128
aVwichtigst
p6129
aVwid
p6130
aVwide
p6131
aVwidget
p6132
aVwie
p6133
aVwieder
p6134
aVwife
p6135
aVwifi
p6136
aVwififofum
p6137
aVwii
p6138
aVwikileak
p6139
aVwikipedia
p6140
aVwild
p6141
aVwill
p6142
aVwilli
p6143
aVwillprovid
p6144
aVwin
p6145
aVwindow
p6146
aVwindows8
p6147
aVwindows_phon
p6148
aVwindowsazur
p6149
aVwindowslivebook
p6150
aVwindowsphon
p6151
aVwindowsxp
p6152
aVwink
p6153
aVwinnaar
p6154
aVwinner
p6155
aVwinningwithel
p6156
aVwire
p6157
aVwireless
p6158
aVwise
p6159
aVwish
p6160
aVwishh
p6161
aVwisten
p6162
aVwit
p6163
aVwk
p6164
aVwmp
p6165
aVwo
p6166
aVwoke
p6167
aVwom
p6168
aVwoman
p6169
aVwomen
p6170
aVwon
p6171
aVwonder
p6172
aVwong
p6173
aVwont
p6174
aVwood
p6175
aVwoon
p6176
aVwoooooo
p6177
aVwooooow
p6178
aVwoooow
p6179
aVword
p6180
aVwordd
p6181
aVwordperfect
p6182
aVwordpress
p6183
aVwordt
p6184
aVwork
p6185
aVworkflow
p6186
aVworkforc
p6187
aVworkload
p6188
aVworkshop
p6189
aVworkspac
p6190
aVworld
p6191
aVworldrecess
p6192
aVworldwid
p6193
aVworri
p6194
aVwors
p6195
aVworst
p6196
aVworstupdateev
p6197
aVworth
p6198
aVwouldn
p6199
aVwound
p6200
aVwow
p6201
aVwowww
p6202
aVwoz
p6203
aVwp
p6204
aVwp7
p6205
aVwpdev
p6206
aVwrestler
p6207
aVwrite
p6208
aVwriter
p6209
aVwrong
p6210
aVwtf
p6211
aVwtfh
p6212
aVwth
p6213
aVwuhu
p6214
aVwyszukuj
p6215
aVxau
p6216
aVxbl
p6217
aVxbla
p6218
aVxbox
p6219
aVxbox360
p6220
aVxboxliv
p6221
aVxd
p6222
aVxero
p6223
aVxeyirli
p6224
aVxico
p6225
aVxima
p6226
aVxing
p6227
aVxito
p6228
aVxk
p6229
aVxp
p6230
aVxq
p6231
aVxx
p6232
aVy
p6233
aVya
p6234
aVyaaa
p6235
aVyahaan
p6236
aVyahoo
p6237
aVyall
p6238
aVye
p6239
aVyea
p6240
aVyeah
p6241
aVyear
p6242
aVyegg
p6243
aVyeh
p6244
aVyellow
p6245
aVyellowg
p6246
aVyenilik
p6247
aVyeo
p6248
aVyespleas
p6249
aVyesterday
p6250
aVyg
p6251
aVyhoo
p6252
aVyield
p6253
aVyla
p6254
aVym
p6255
aVyoconfieso
p6256
aVyojimbo
p6257
aVyoo
p6258
aVyooooooo
p6259
aVyor
p6260
aVyour
p6261
aVyourdaysarenumb
p6262
aVyourleashel
p6263
aVyousendit
p6264
aVyouth
p6265
aVyoutu
p6266
aVyoutub
p6267
aVyoxdu
p6268
aVyr
p6269
aVyu
p6270
aVyummi
p6271
aVyumyumyum
p6272
aVyup
p6273
aVyyc
p6274
aVz
p6275
aVzaaaat
p6276
aVzaakgericht
p6277
aVzahlreichen
p6278
aVzal
p6279
aVzanedbateln
p6280
aVzapatero
p6281
aVzapptek
p6282
aVzbot
p6283
aVzdnet
p6284
aVzeer
p6285
aVzegt
p6286
aVzeker
p6287
aVzelf
p6288
aVzero
p6289
aVzeyleri
p6290
aVzichtbaar
p6291
aVzien
p6292
aVziet
p6293
aVzij
p6294
aVzijn
p6295
aVznen
p6296
aVzo
p6297
aVzoal
p6298
aVzoek
p6299
aVzoekdiensten
p6300
aVzoeken
p6301
aVzombi
p6302
aVzombienpndej
p6303
aVzomg
p6304
aVzoo
p6305
aVzoom
p6306
aVzou
p6307
aVzu
p6308
aVzuckerberg
p6309
aVzug
p6310
aVzuk
p6311
aVzum
p6312
aVzune
p6313
aVzwoll
p6314
aVzynga
p6315
aVzzzzzzzzzzzzzzzzzzzz
p6316
a.