(lp0
S'0'
p1
aS'01'
p2
aS'1'
p3
aS'1080p'
p4
aS'13'
p5
aS'17'
p6
aS'18'
p7
aV1st
p8
aS'2'
p9
aV20
p10
aV2006
p11
aS'2010'
p12
aS'21'
p13
aS'2178d655'
p14
aS'23'
p15
aS'26'
p16
aS'27'
p17
aS'29'
p18
aS'2mar'
p19
aS'2pi'
p20
aS'3'
p21
aS'365daysofgratefulness'
p22
aV37
p23
aV4s
p24
aS'5'
p25
aS'500'
p26
aV62
p27
aS'64g'
p28
aS'9'
p29
aS'90'
p30
aV__
p31
aS'___'
p32
aS'_________'
p33
aS'a23'
p34
aS'aa'
p35
aS'aaargh'
p36
aS'aan'
p37
aS'aanbod'
p38
aVaanby
p39
aS'aangekondigd'
p40
aS'aant'
p41
aS'aantikk'
p42
aS'aapl'
p43
aS'ab'
p44
aS'abaik'
p45
aS'abandon'
p46
aS'abandonado'
p47
aVabb
p48
aS'abba'
p49
aS'abbat'
p50
aVabbrevy
p51
aS'abc'
p52
aVabl
p53
aVabonnez
p54
aS'abr'
p55
aS'abrazo'
p56
aS'abro'
p57
aS'abrum'
p58
aS'absoluto'
p59
aVabsolv
p60
aVabstract
p61
aS'abt'
p62
aS'aburrido'
p63
aS'aburriiiidooo'
p64
aVac
p65
aS'acab'
p66
aS'acabo'
p67
aS'acabou'
p68
aS'academy'
p69
aS'acaso'
p70
aS'acc'
p71
aVacceiv
p72
aS'accel'
p73
aS'access'
p74
aVaccessibilit
p75
aS'accid'
p76
aS'accompany'
p77
aS'accord'
p78
aS'account'
p79
aS'acct'
p80
aS'accu'
p81
aS'acelerado'
p82
aS'acervo'
p83
aS'ach'
p84
aS'achterho'
p85
aS'acm'
p86
aS'acompanhando'
p87
aS'acquir'
p88
aVacquisit
p89
aVacronym
p90
aS'act'
p91
aS'activo'
p92
aVactualit
p93
aVactualiz
p94
aS'actuel'
p95
aS'acuerdes'
p96
aS'ad'
p97
aS'adas'
p98
aS'adc'
p99
aS'addict'
p100
aS'addit'
p101
aVaddress
p102
aS'adem'
p103
aS'adicc'
p104
aS'adictivo'
p105
aS'adio'
p106
aVadmin
p107
aS'administrad'
p108
aS'admir'
p109
aS'admit'
p110
aS'adob'
p111
aS'adoman'
p112
aS'adopt'
p113
aS'adoro'
p114
aS'adquirido'
p115
aS'adquisic'
p116
aS'adsens'
p117
aS'adt'
p118
aS'adv'
p119
aVadvert
p120
aS'adweek'
p121
aS'adword'
p122
aS'ae'
p123
aVaffair
p124
aS'affich'
p125
aVafford
p126
aS'afgev'
p127
aVafin
p128
aS'afortunado'
p129
aS'afric'
p130
aS'afsa'
p131
aS'afspraak'
p132
aS'afterthought'
p133
aVag
p134
aS'agend'
p135
aS'aggiustento'
p136
aVaggress
p137
aS'agitado'
p138
aS'ago'
p139
aS'agor'
p140
aS'agr'
p141
aS'agradecido'
p142
aS'agradecimento'
p143
aS'agreg'
p144
aS'agu'
p145
aS'ah'
p146
aS'ahaa'
p147
aS'ahc'
p148
aVahead
p149
aVahh
p150
aS'ahhahahah'
p151
aS'ahhhh'
p152
aS'ahhhhh'
p153
aS'ahor'
p154
aS'ahorit'
p155
aS'ahorita'
p156
aS'ai'
p157
aS'aid'
p158
aS'aii'
p159
aS'aim'
p160
aS'ain'
p161
aS'aind'
p162
aS'aint'
p163
aS'air'
p164
aVairdrop
p165
aS'airport'
p166
aS'aj'
p167
aS'ajajaj'
p168
aS'ajeite'
p169
aS'ajildavn'
p170
aS'ajnab'
p171
aVajout
p172
aS'ajud'
p173
aS'ajust'
p174
aVak
p175
aS'aki'
p176
aS'akit'
p177
aS'akt'
p178
aValabado
p179
aS'alaluy'
p180
aS'alarm'
p181
aS'alask'
p182
aS'alb'
p183
aValbatross
p184
aValbo
p185
aS'album'
p186
aS'alchemy'
p187
aValcohol
p188
aS'alcool'
p189
aS'alegro'
p190
aS'alejado'
p191
aValert
p192
aS'alg'
p193
aValger
p194
aValgo
p195
aS'algod'
p196
aS'algorithm'
p197
aS'algun'
p198
aS'alguno'
p199
aValguy
p200
aS'alittl'
p201
aS'alleg'
p202
aS'allow'
p203
aS'allt'
p204
aVallthingsd
p205
aValltogeth
p206
aS'almaceniento'
p207
aS'almad'
p208
aS'almeno'
p209
aS'alongsid'
p210
aS'alrit'
p211
aS'alt'
p212
aS'altern'
p213
aS'alternativa'
p214
aS'alth'
p215
aValtijd
p216
aS'alto'
p217
aS'ana'
p218
aS'anak'
p219
aVanalis
p220
aS'analista'
p221
aS'analys'
p222
aVanalyst
p223
aS'anatus'
p224
aS'anddro'
p225
aS'android'
p226
aS'android4'
p227
aVandroid40
p228
aS'android_ar'
p229
aS'androidb'
p230
aS'androidicecr'
p231
aVandroidicecresandwich
p232
aS'androidjp'
p233
aS'androidv'
p234
aS'androidvzl'
p235
aS'andy'
p236
aS'ang'
p237
aS'angel'
p238
aS'angry'
p239
aS'anh'
p240
aS'aniversario'
p241
aVanj
p242
aS'ank'
p243
aS'annewil'
p244
aS'annivers'
p245
aVannont
p246
aS'annot'
p247
aVannount
p248
aVannoy
p249
aVanny
p250
aS'anoquesoc'
p251
aS'anschau'
p252
aS'ansl'
p253
aS'answ'
p254
aS'ant'
p255
aS'anticip'
p256
aS'antiguo'
p257
aVantitrust
p258
aS'antivir'
p259
aS'antonio'
p260
aS'anunc'
p261
aS'anunciado'
p262
aS'anym'
p263
aS'ao'
p264
aS'aol'
p265
aS'aosp'
p266
aS'ap'
p267
aS'aparato'
p268
aS'aparec'
p269
aS'apareceu'
p270
aS'apart'
p271
aS'apena'
p272
aS'apes'
p273
aS'apit'
p274
aS'aplicac'
p275
aS'aplicativo'
p276
aS'apollo'
p277
aS'apolog'
p278
aS'app'
p279
aS'appareil'
p280
aVappartien
p281
aS'appear'
p282
aS'appen'
p283
aS'appl'
p284
aS'applec'
p285
aS'appleid'
p286
aVapplemac
p287
aS'applesearch'
p288
aVapplest
p289
aS'applestock'
p290
aS'appletel'
p291
aS'appleweblog'
p292
aS'apply'
p293
aS'appoint'
p294
aS'appr'
p295
aVapprecy
p296
aS'approach'
p297
aS'approxim'
p298
aVappsens
p299
aS'appst'
p300
aS'appt'
p301
aS'aprend'
p302
aVaprendera
p303
aVapron
p304
aS'apt'
p305
aS'apunt'
p306
aS'aqq'
p307
aS'aqu'
p308
aS'aquel'
p309
aS'arac'
p310
aS'aray'
p311
aS'arbit'
p312
aVarc
p313
aVarchitect
p314
aS'are'
p315
aS'area'
p316
aS'argentin'
p317
aVargu
p318
aS'arip'
p319
aS'arkadin'
p320
aS'arkh'
p321
aS'arm'
p322
aS'arrazando'
p323
aS'arreglo'
p324
aVarrog
p325
aS'art'
p326
aS'artic'
p327
aS'articulo'
p328
aS'artista'
p329
aS'asab'
p330
aS'asap'
p331
aS'asc'
p332
aS'asiaclassifiedtoday'
p333
aVasiad
p334
aS'ask'
p335
aS'asp'
p336
aVaspenib
p337
aS'aspett'
p338
aS'aspetto'
p339
aS'ass'
p340
aS'assess'
p341
aS'asset'
p342
aS'assim'
p343
aVassist
p344
aS'assistindo'
p345
aVassocy
p346
aS'ast'
p347
aVastound
p348
aS'atalho'
p349
aS'ataqu'
p350
aS'atir'
p351
aS'atp'
p352
aS'atr'
p353
aS'attack'
p354
aS'attend'
p355
aS'attribut'
p356
aS'atualiz'
p357
aS'atureho'
p358
aS'au'
p359
aS'auch'
p360
aS'audio'
p361
aS'auf'
p362
aS'augnl'
p363
aS'august'
p364
aS'aujourd'
p365
aS'aun'
p366
aS'aunqu'
p367
aS'auss'
p368
aS'austin'
p369
aS'aut'
p370
aS'auth'
p371
aS'auto'
p372
aS'autocomplet'
p373
aS'autofollow'
p374
aS'autom'
p375
aS'autopilot'
p376
aVautosavesuck
p377
aS'aux'
p378
aS'av'
p379
aS'avail'
p380
aS'avait'
p381
aVaval
p382
aS'avanad'
p383
aS'avandonado'
p384
aS'avanzad'
p385
aS'avat'
p386
aVavec
p387
aS'avenu'
p388
aS'avez'
p389
aS'aviiertooo'
p390
aS'avis'
p391
aS'avoid'
p392
aVavoir
p393
aS'avt'
p394
aVavtweep
p395
aS'avvio'
p396
aS'aw'
p397
aS'await'
p398
aS'away'
p399
aS'awesom'
p400
aS'awkward'
p401
aS'awwwn'
p402
aS'ax'
p403
aS'ay'
p404
aS'ayud'
p405
aS'ayy'
p406
aS'az'
p407
aS'azay'
p408
aS'azon'
p409
aS'b'
p410
aS'ba'
p411
aS'bab'
p412
aS'baboso'
p413
aVbaby
p414
aS'babydaddydr'
p415
aS'babymadr'
p416
aS'bacano'
p417
aS'background'
p418
aS'backsid'
p419
aVbackup
p420
aS'bad'
p421
aS'badg'
p422
aS'bag'
p423
aS'bah'
p424
aS'bahhh'
p425
aS'baja'
p426
aVbak
p427
aS'bal'
p428
aS'ballm'
p429
aVballoon
p430
aS'balm'
p431
aS'ban'
p432
aS'banc'
p433
aS'band'
p434
aVbandar
p435
aS'bando'
p436
aS'bandwid'
p437
aS'bang'
p438
aS'bank'
p439
aS'bar'
p440
aS'barex'
p441
aS'barg'
p442
aVbargain
p443
aS'barn'
p444
aS'barom'
p445
aS'baromet'
p446
aS'barr'
p447
aS'barron'
p448
aS'baru'
p449
aS'bas'
p450
aS'basada'
p451
aS'basado'
p452
aVbasedenegocio
p453
aS'bast'
p454
aS'bastard'
p455
aS'bat'
p456
aS'batm'
p457
aS'battery'
p458
aS'battl'
p459
aS'bay'
p460
aS'bb'
p461
aS'bbm'
p462
aVbby
p463
aS'bc'
p464
aVbear
p465
aS'beat'
p466
aS'beatl'
p467
aS'beau'
p468
aVbeauty
p469
aS'becky'
p470
aS'bed'
p471
aS'bedankt'
p472
aS'bedr'
p473
aS'bedrijfsprofiel'
p474
aS'bedrijv'
p475
aS'bedtim'
p476
aVbee
p477
aS'beeem'
p478
aS'beef'
p479
aVbeelin
p480
aVbeets
p481
aS'beg'
p482
aS'begin'
p483
aS'bei'
p484
aVbeid
p485
aVbeim
p486
aVbein
p487
aS'bejewel'
p488
aS'bekend'
p489
aS'bel'
p490
aS'belez'
p491
aS'beliebig'
p492
aS'believ'
p493
aS'belong'
p494
aS'belt'
p495
aS'bem'
p496
aS'ben'
p497
aS'benchmark'
p498
aS'bend'
p499
aS'bendiig'
p500
aS'bendito'
p501
aS'bendorf'
p502
aVbenef
p503
aS'benefit'
p504
aS'benieuwd'
p505
aS'benissimo'
p506
aS'ber'
p507
aS'berad'
p508
aS'beral'
p509
aS'bercol'
p510
aS'berfl'
p511
aS'berholt'
p512
aVberlin
p513
aS'berry'
p514
aVbertemu
p515
aS'beschikba'
p516
aVbeschikk
p517
aS'besetzung'
p518
aS'bess'
p519
aS'best'
p520
aVbesturingssysteem
p521
aS'bet'
p522
aS'betriebssystem'
p523
aS'bew'
p524
aVbezielend
p525
aS'bff'
p526
aS'bg'
p527
aS'bi'
p528
aS'bibliograph'
p529
aS'bid'
p530
aS'bien'
p531
aS'bienven'
p532
aS'bienvenid'
p533
aS'bienvenido'
p534
aS'bietet'
p535
aS'big'
p536
aS'bigappl'
p537
aS'bigdealdawson'
p538
aS'biggest'
p539
aS'bigm'
p540
aVbij
p541
aS'bilg'
p542
aS'bill_gates'
p543
aS'billg'
p544
aVbiltm
p545
aS'bind'
p546
aVbing
p547
aS'bipol'
p548
aS'bird'
p549
aS'birthday'
p550
aS'bishop'
p551
aVbit
p552
aS'bitch'
p553
aS'bitchslap'
p554
aVbiz
p555
aVbizar
p556
aS'bizspark'
p557
aS'bj'
p558
aS'bjuss'
p559
aS'bl'
p560
aS'black'
p561
aVblackberry
p562
aS'blackout'
p563
aS'blank'
p564
aS'blar'
p565
aS'blast'
p566
aS'blat'
p567
aVblav
p568
aS'blaz'
p569
aS'bldwin'
p570
aS'ble'
p571
aS'bleibt'
p572
aVbless
p573
aS'blijk'
p574
aS'blik'
p575
aS'blir'
p576
aS'blob'
p577
aS'block'
p578
aS'blog'
p579
aS'blogom'
p580
aS'blood'
p581
aS'bloody'
p582
aVbloomb
p583
aS'bloomberg'
p584
aS'bloqueando'
p585
aS'blow'
p586
aS'blown'
p587
aS'blu'
p588
aVbluetoo
p589
aS'blyal'
p590
aS'bmer'
p591
aS'bmt'
p592
aS'bno'
p593
aS'boa'
p594
aVboard
p595
aVboast
p596
aS'bob'
p597
aS'bobeira'
p598
aS'bobharp'
p599
aS'bod'
p600
aS'body'
p601
aS'boe'
p602
aS'boer'
p603
aS'bog'
p604
aS'bol'
p605
aS'bolb'
p606
aS'boliv'
p607
aS'bologn'
p608
aS'bolsillo'
p609
aS'bom'
p610
aS'bon'
p611
aS'bonbano'
p612
aS'bond'
p613
aS'bong'
p614
aVbonito
p615
aS'bonjo'
p616
aS'bonsoir'
p617
aS'boo'
p618
aS'booiiii'
p619
aS'book'
p620
aS'bookcas'
p621
aS'bookmark'
p622
aVbookworm
p623
aVboost
p624
aS'boot'
p625
aS'bootload'
p626
aS'bor'
p627
aVbord
p628
aS'borrad'
p629
aS'borrarlo'
p630
aS'bort'
p631
aS'bosch'
p632
aVboss
p633
aS'bot'
p634
aS'boton'
p635
aS'bottleneck'
p636
aVboug
p637
aS'bought'
p638
aS'bound'
p639
aVbount
p640
aS'bouquet'
p641
aS'bout'
p642
aS'bov'
p643
aS'bow'
p644
aS'bowl'
p645
aS'box'
p646
aS'boy'
p647
aS'boycot'
p648
aS'brail'
p649
aS'brain'
p650
aS'brand'
p651
aS'bransch'
p652
aS'brasil'
p653
aVbreak
p654
aS'breakfast'
p655
aS'breakingnew'
p656
aVbrekend
p657
aS'brev'
p658
aVbrick
p659
aS'brief'
p660
aVbril
p661
aS'brin'
p662
aS'bring'
p663
aVbrit
p664
aS'bro'
p665
aS'broad'
p666
aS'brod'
p667
aS'brok'
p668
aVbrom
p669
aVbromsolv
p670
aS'broo'
p671
aS'broth'
p672
aS'brought'
p673
aS'brows'
p674
aS'browserw'
p675
aS'bru'
p676
aS'bs'
p677
aS'bsod'
p678
aS'bss'
p679
aS'btw'
p680
aS'bucc'
p681
aS'bud'
p682
aS'buddy'
p683
aS'buen'
p684
aS'buena'
p685
aS'buend'
p686
aVbueno
p687
aS'buenoh'
p688
aS'buenooooo'
p689
aS'buffalo'
p690
aVbug
p691
aS'build'
p692
aS'built'
p693
aS'builtin'
p694
aVbul
p695
aS'bullet'
p696
aS'bulletin'
p697
aS'bullm'
p698
aS'bullshit'
p699
aVbum
p700
aS'bump'
p701
aVbunch
p702
aS'bundl'
p703
aVburn
p704
aVbury
p705
aS'bus'
p706
aS'busca'
p707
aS'buscalo'
p708
aS'busco'
p709
aS'businessweek'
p710
aS'busy'
p711
aS'buttery'
p712
aS'button'
p713
aS'buy'
p714
aVbuyin
p715
aS'buzz'
p716
aS'buzzworthyenesp'
p717
aS'buzzz'
p718
aS'bwan'
p719
aVbye
p720
aS'byrdg'
p721
aVc
p722
aVca
p723
aS'caaargaaaaa'
p724
aS'cabron'
p725
aS'cacc'
p726
aS'cacchio'
p727
aS'cach'
p728
aS'cachando'
p729
aS'cad'
p730
aS'cagando'
p731
aS'cago'
p732
aS'cair'
p733
aS'cak'
p734
aS'calend'
p735
aVcalendry
p736
aS'californ'
p737
aS'calumo'
p738
aS'canad'
p739
aS'cand'
p740
aS'canergiemellon'
p741
aS'canon'
p742
aS'cantwealljustgetalong'
p743
aS'cap'
p744
aS'capac'
p745
aS'capacitac'
p746
aS'capit'
p747
aS'capt'
p748
aS'car'
p749
aS'caract'
p750
aVcarad
p751
aS'carajadr'
p752
aS'carb'
p753
aS'card'
p754
aVcarnegiemellon
p755
aVcarnegy
p756
aS'carpeta'
p757
aS'carr'
p758
aS'carrasco'
p759
aS'carry'
p760
aS'cart'
p761
aS'cas'
p762
aS'caschy'
p763
aS'cash'
p764
aS'caso'
p765
aS'cast'
p766
aS'casualidad'
p767
aVcatastroph
p768
aS'catch'
p769
aS'catchin'
p770
aVcateg
p771
aS'caus'
p772
aS'causando'
p773
aS'causarl'
p774
aS'caut'
p775
aVcauty
p776
aS'cav'
p777
aS'cbi'
p778
aS'cbiado'
p779
aS'cc'
p780
aS'ccna'
p781
aVcd
p782
aVcdma
p783
aS'ce'
p784
aS'ceel'
p785
aVcej
p786
aS'cel'
p787
aS'celeb'
p788
aS'celebr'
p789
aS'celul'
p790
aS'celularrrrrr'
p791
aS'cens'
p792
aVcent
p793
aS'centr'
p794
aS'centro'
p795
aVcentury
p796
aS'ceo'
p797
aS'cer'
p798
aS'cera'
p799
aVceremony
p800
aS'ceritany'
p801
aS'cert'
p802
aS'certain'
p803
aS'certific'
p804
aS'certificado'
p805
aS'ces'
p806
aS'cesspit'
p807
aS'cet'
p808
aVcgt
p809
aVch
p810
aS'chair'
p811
aS'challeng'
p812
aVchang
p813
aVchant
p814
aS'chao'
p815
aS'chap'
p816
aVchaqu
p817
aVchar
p818
aS'charact'
p819
aS'charem'
p820
aS'charg'
p821
aS'chart'
p822
aVchas
p823
aS'chat'
p824
aS'chaton'
p825
aS'che'
p826
aS'cheap'
p827
aS'cheatedabit'
p828
aS'chec'
p829
aS'check'
p830
aVcheckbox
p831
aS'checkup'
p832
aS'cheltenh'
p833
aS'chen'
p834
aS'chequ'
p835
aS'cher'
p836
aS'chickz'
p837
aS'chief'
p838
aS'chil'
p839
aS'child'
p840
aS'chin'
p841
aS'chipset'
p842
aS'chismeen'
p843
aS'chist'
p844
aS'chk'
p845
aS'cho'
p846
aS'choos'
p847
aS'choosy'
p848
aS'chos'
p849
aS'chp'
p850
aS'chris'
p851
aVchristina
p852
aS'christmas'
p853
aVchrome
p854
aS'chste'
p855
aS'chu'
p856
aS'chuch'
p857
aS'chyst'
p858
aS'ci'
p859
aS'cicip'
p860
aS'cidd'
p861
aS'cielo'
p862
aS'cient'
p863
aS'cientifico'
p864
aS'cierro'
p865
aS'cierto'
p866
aS'ciloka'
p867
aS'cim'
p868
aS'cinco'
p869
aS'cinguetti'
p870
aS'circ'
p871
aVcircumst
p872
aS'cisco'
p873
aS'citigroup'
p874
aS'citrix'
p875
aS'city'
p876
aS'cker'
p877
aS'ckt'
p878
aS'cktritt'
p879
aS'cl'
p880
aS'claim'
p881
aS'clair'
p882
aVclar
p883
aS'clas'
p884
aS'class'
p885
aS'classroom'
p886
aVclavy
p887
aS'cld'
p888
aVcle
p889
aS'clear'
p890
aS'cli'
p891
aS'click'
p892
aS'client'
p893
aS'clock'
p894
aS'clos'
p895
aS'closet'
p896
aS'cloud'
p897
aS'cloud_computing'
p898
aS'cloudcomput'
p899
aS'clown'
p900
aVclu
p901
aS'club'
p902
aS'cmg'
p903
aVcmo
p904
aS'cmswire'
p905
aS'cnectar'
p906
aS'cnet'
p907
aS'cnt'
p908
aS'cntestaaaa'
p909
aS'coach'
p910
aS'coat'
p911
aS'cobr'
p912
aS'cobrarm'
p913
aS'cod'
p914
aS'codec'
p915
aS'coff'
p916
aS'cogit'
p917
aVcoincid
p918
aS'cois'
p919
aS'colapso'
p920
aS'colecc'
p921
aVcolin
p922
aS'collab'
p923
aS'colleagu'
p924
aS'collect'
p925
aS'colleg'
p926
aS'colo'
p927
aS'coloco'
p928
aS'coloqu'
p929
aS'colp'
p930
aS'com'
p931
aS'comb'
p932
aVcombo
p933
aVcomby
p934
aS'comfortabel'
p935
aS'cominciato'
p936
aS'command'
p937
aS'commerc'
p938
aS'commit'
p939
aS'commod'
p940
aS'common'
p941
aS'commun'
p942
aS'communaut'
p943
aS'como'
p944
aVcomp
p945
aS'company'
p946
aS'comparison'
p947
aS'compart'
p948
aS'compartilhentov'
p949
aS'compartimo'
p950
aS'compartir'
p951
aS'compat'
p952
aVcompel
p953
aS'compet'
p954
aS'competenc'
p955
aS'competit'
p956
aS'compil'
p957
aS'compl'
p958
aS'complain'
p959
aS'complaint'
p960
aS'complet'
p961
aS'compliment'
p962
aVcomply
p963
aS'compo'
p964
aS'compon'
p965
aS'compos'
p966
aS'compr'
p967
aS'comprado'
p968
aVcompress
p969
aS'computad'
p970
aS'compuu'
p971
aS'comun'
p972
aVconceiv
p973
aS'concern'
p974
aVconclud
p975
aS'concur'
p976
aS'condit'
p977
aS'condom'
p978
aS'conectado'
p979
aS'conecto'
p980
aS'conejo'
p981
aS'conf'
p982
aS'conferencecal'
p983
aVconfid
p984
aS'config'
p985
aS'confirm'
p986
aS'conflict'
p987
aS'confus'
p988
aS'confusedbymytimelin'
p989
aS'confusin'
p990
aVconfy
p991
aS'congelad'
p992
aS'congr'
p993
aS'congrat'
p994
aS'congratweet'
p995
aS'conn'
p996
aS'connect'
p997
aS'conoc'
p998
aS'conocido'
p999
aS'conocimiento'
p1000
aS'conom'
p1001
aS'consid'
p1002
aS'consigans'
p1003
aVconsol
p1004
aVconsolid
p1005
aS'consom'
p1006
aS'const'
p1007
aS'constantcontact'
p1008
aS'constrain'
p1009
aS'construido'
p1010
aVconsu
p1011
aS'consult'
p1012
aS'consulta'
p1013
aS'consultingw'
p1014
aS'consum'
p1015
aS'consumo'
p1016
aS'cont'
p1017
aVcontact
p1018
aS'contandom'
p1019
aS'contato'
p1020
aVcontattac
p1021
aS'conten'
p1022
aS'contend'
p1023
aS'contenido'
p1024
aS'contenu'
p1025
aVcontinu
p1026
aS'contr'
p1027
aS'contraatac'
p1028
aS'contract'
p1029
aVcontrol
p1030
aS'conundr'
p1031
aS'convers'
p1032
aS'convert'
p1033
aS'convey'
p1034
aVconviert
p1035
aVconvint
p1036
aVcool
p1037
aS'coolstorybro'
p1038
aS'cop'
p1039
aS'copi'
p1040
aVcopyright
p1041
aS'cor'
p1042
aS'coraz'
p1043
aS'cord'
p1044
aVcoreapptech
p1045
aS'corn'
p1046
aS'corna'
p1047
aS'cornel'
p1048
aS'corno'
p1049
aS'corp'
p1050
aS'corporativo'
p1051
aS'correct'
p1052
aS'correo'
p1053
aS'corrompido'
p1054
aS'cort'
p1055
aS'cortex'
p1056
aS'cos'
p1057
aS'cosa'
p1058
aS'coso'
p1059
aS'cost'
p1060
aS'costolo'
p1061
aS'costumbr'
p1062
aS'couch'
p1063
aS'couldn'
p1064
aVcount
p1065
aS'coup'
p1066
aS'coupl'
p1067
aS'cours'
p1068
aS'coursey'
p1069
aS'court'
p1070
aVcourtesy
p1071
aVcov
p1072
aS'cowork'
p1073
aVcoz
p1074
aS'cp'
p1075
aS'cpa'
p1076
aS'cpaign'
p1077
aS'cper'
p1078
aVcpg
p1079
aS'cpqd'
p1080
aVcpu
p1081
aS'crack'
p1082
aS'crackberry'
p1083
aS'cran'
p1084
aS'cranberry'
p1085
aS'crap'
p1086
aS'crash'
p1087
aS'crav'
p1088
aS'crawl'
p1089
aS'crazy'
p1090
aS'cre'
p1091
aVcrear
p1092
aVcreato
p1093
aS'crec'
p1094
aVcred
p1095
aS'credit'
p1096
aVcreditbl
p1097
aS'credito'
p1098
aS'creen'
p1099
aVcreert
p1100
aS'creo'
p1101
aS'crit'
p1102
aS'critic'
p1103
aS'crm'
p1104
aS'cro'
p1105
aS'cross'
p1106
aS'crush'
p1107
aS'crypt'
p1108
aS'cs'
p1109
aS'csportsmn'
p1110
aS'ct'
p1111
aVcti
p1112
aS'ctil'
p1113
aS'ctp'
p1114
aS'ctr'
p1115
aS'ctx'
p1116
aS'cu'
p1117
aVcuaderno
p1118
aS'cualquer'
p1119
aVcualquy
p1120
aS'cuando'
p1121
aS'cuano'
p1122
aS'cuant'
p1123
aS'cuanto'
p1124
aS'cuent'
p1125
aS'cuenta'
p1126
aS'cuentalaleyend'
p1127
aS'cuento'
p1128
aS'cula'
p1129
aS'culminando'
p1130
aS'culp'
p1131
aS'cumpl'
p1132
aS'cur'
p1133
aS'curs'
p1134
aS'curso'
p1135
aVcursuss
p1136
aVcursusvo
p1137
aVcustom
p1138
aVcustomerapprecy
p1139
aS'customerserv'
p1140
aVcustserv
p1141
aS'cut'
p1142
aS'cuz'
p1143
aS'cyanog'
p1144
aS'cyanogenmod'
p1145
aS'cyclon'
p1146
aS'cyst'
p1147
aVczytas
p1148
aVd
p1149
aS'd2l'
p1150
aS'da'
p1151
aS'daar'
p1152
aS'daarm'
p1153
aS'dad'
p1154
aS'dado'
p1155
aS'daf'
p1156
aS'dag'
p1157
aVdai
p1158
aS'daibosyu'
p1159
aS'daiml'
p1160
aS'daj'
p1161
aS'dal'
p1162
aS'dall'
p1163
aS'dan'
p1164
aS'dancec'
p1165
aS'dando'
p1166
aS'dank'
p1167
aS'danneggiat'
p1168
aVdant
p1169
aS'dar'
p1170
aS'dark'
p1171
aS'darl'
p1172
aS'dars'
p1173
aS'das'
p1174
aS'dasneuearbeit'
p1175
aS'dass'
p1176
aS'dat'
p1177
aS'databas'
p1178
aS'datalimiet'
p1179
aS'dato'
p1180
aS'daught'
p1181
aVdav
p1182
aS'david'
p1183
aVdawn
p1184
aS'day'
p1185
aS'day305'
p1186
aS'daytimewdonn'
p1187
aS'dazu'
p1188
aVdb
p1189
aS'dd'
p1190
aS'ddd'
p1191
aS'dea'
p1192
aS'dead'
p1193
aS'deaf'
p1194
aS'deal'
p1195
aS'dealt'
p1196
aVdear
p1197
aS'deb'
p1198
aS'deber'
p1199
aVdebloqu
p1200
aVdebt
p1201
aS'debut'
p1202
aS'dec'
p1203
aVdecad
p1204
aS'decid'
p1205
aS'decir'
p1206
aS'decirlo'
p1207
aS'decl'
p1208
aS'declar'
p1209
aVdeclin
p1210
aVded
p1211
aS'dedo'
p1212
aS'default'
p1213
aVdefecto
p1214
aS'definit'
p1215
aS'definitivn'
p1216
aS'defraud'
p1217
aS'degr'
p1218
aS'degrass'
p1219
aS'deiixando'
p1220
aS'deix'
p1221
aS'dej'
p1222
aS'dejaron'
p1223
aS'dejart'
p1224
aS'dejast'
p1225
aS'del'
p1226
aS'delay'
p1227
aS'delet'
p1228
aVdelicy
p1229
aS'delight'
p1230
aS'dem'
p1231
aS'demain'
p1232
aS'demasiado'
p1233
aS'demo'
p1234
aS'demonio'
p1235
aS'demonst'
p1236
aVden
p1237
aS'denal'
p1238
aS'deng'
p1239
aS'denkt'
p1240
aVdennisritchy
p1241
aVdenount
p1242
aS'dens'
p1243
aS'dent'
p1244
aS'dep'
p1245
aS'depart'
p1246
aS'departento'
p1247
aS'depend'
p1248
aVdeploy
p1249
aS'depot'
p1250
aVdepu
p1251
aS'der'
p1252
aVderny
p1253
aS'des'
p1254
aS'desahoq'
p1255
aVdesarroll
p1256
aS'desarrollad'
p1257
aS'desarrollo'
p1258
aS'desbloquear'
p1259
aS'descans'
p1260
aS'descargada'
p1261
aS'descargu'
p1262
aS'desd'
p1263
aS'desejo'
p1264
aVdesign
p1265
aVdesir
p1266
aS'desktop'
p1267
aS'deslig'
p1268
aS'despedindo'
p1269
aS'desplieg'
p1270
aS'despu'
p1271
aS'dess'
p1272
aS'destaqu'
p1273
aS'destekled'
p1274
aVdestroy
p1275
aS'det'
p1276
aS'detal'
p1277
aS'detelefoonvanbrit'
p1278
aS'determin'
p1279
aS'detik'
p1280
aS'deu'
p1281
aS'deux'
p1282
aVdev
p1283
aS'devel'
p1284
aVdevelo
p1285
aVdevelop
p1286
aS'devproblem'
p1287
aS'devr'
p1288
aVdevra
p1289
aS'devreach'
p1290
aVdevy
p1291
aS'dew'
p1292
aS'dey'
p1293
aVdez
p1294
aVdezz
p1295
aS'dhilipsiv'
p1296
aS'di'
p1297
aS'dia'
p1298
aVdiario
p1299
aS'diarrh'
p1300
aS'diaz'
p1301
aS'dic'
p1302
aS'dica'
p1303
aVdich
p1304
aS'dicho'
p1305
aS'dick'
p1306
aS'dict'
p1307
aVdictionnair
p1308
aS'did'
p1309
aS'didn'
p1310
aS'didnt'
p1311
aS'die'
p1312
aS'died'
p1313
aVdiego
p1314
aS'dien'
p1315
aS'dienstverl'
p1316
aS'dieron'
p1317
aS'dies'
p1318
aVdiferenc
p1319
aS'diff'
p1320
aVdifficul
p1321
aS'difficult'
p1322
aS'dificuldad'
p1323
aS'diganm'
p1324
aVdigiprof
p1325
aS'digit'
p1326
aVdigitalstrategy
p1327
aS'digo'
p1328
aS'diia'
p1329
aS'diio'
p1330
aS'diiqooo'
p1331
aS'dij'
p1332
aS'dijitald'
p1333
aS'dijo'
p1334
aVdileatumentequedesc
p1335
aS'dilo'
p1336
aS'dim'
p1337
aS'din'
p1338
aS'ding'
p1339
aS'dio'
p1340
aS'dipset'
p1341
aS'direct'
p1342
aS'dis'
p1343
aS'disagr'
p1344
aS'disappear'
p1345
aS'disappoint'
p1346
aS'disco'
p1347
aS'discontinu'
p1348
aS'discount'
p1349
aVdiscov
p1350
aS'disculp'
p1351
aVdiscuss
p1352
aS'disfrut'
p1353
aVdisgu
p1354
aS'dish'
p1355
aS'dispens'
p1356
aS'display'
p1357
aS'dispo'
p1358
aS'dispon'
p1359
aS'dispos'
p1360
aS'dispositivo'
p1361
aS'disrupt'
p1362
aS'diss'
p1363
aS'distra'
p1364
aS'distribut'
p1365
aS'dit'
p1366
aS'divertido'
p1367
aVdivid
p1368
aS'diy'
p1369
aVdlc
p1370
aS'dm'
p1371
aS'dmo'
p1372
aS'dms'
p1373
aVdn
p1374
aS'dnt'
p1375
aS'doc'
p1376
aS'docu'
p1377
aS'dodg'
p1378
aS'doe'
p1379
aS'doesn'
p1380
aS'doesnt'
p1381
aS'doet'
p1382
aS'doin'
p1383
aVdoing
p1384
aS'doj'
p1385
aS'dokunmatik'
p1386
aS'doll'
p1387
aS'domain'
p1388
aS'doman'
p1389
aVdomest
p1390
aS'dominio'
p1391
aVdommemens
p1392
aVdond
p1393
aVdont
p1394
aS'doom'
p1395
aVdoor
p1396
aS'dorado'
p1397
aS'dorga'
p1398
aS'dorm'
p1399
aS'dormir'
p1400
aS'dorrm'
p1401
aS'dos'
p1402
aVdossy
p1403
aS'dostup'
p1404
aS'dotnet'
p1405
aVdotykowy
p1406
aVdoubl
p1407
aS'doubt'
p1408
aS'doucheb'
p1409
aS'doug'
p1410
aS'dough'
p1411
aS'doughnut'
p1412
aS'downgrad'
p1413
aS'download'
p1414
aS'downsid'
p1415
aS'downward'
p1416
aS'doy'
p1417
aS'dr'
p1418
aS'drain'
p1419
aS'drak'
p1420
aS'drawlin'
p1421
aS'dre'
p1422
aS'drew'
p1423
aS'drink'
p1424
aS'driodrazr'
p1425
aS'driv'
p1426
aS'drm'
p1427
aS'droid'
p1428
aS'droidtweak'
p1429
aS'drop'
p1430
aS'dropbox'
p1431
aS'dropthekn'
p1432
aS'drug'
p1433
aS'drumrol'
p1434
aS'dsvelarme'
p1435
aS'du'
p1436
aS'duba'
p1437
aS'dud'
p1438
aVduda
p1439
aVduet
p1440
aS'duetenterpr'
p1441
aS'duhhhh'
p1442
aVduim
p1443
aS'duk'
p1444
aS'duly'
p1445
aS'dumb'
p1446
aS'dumbass'
p1447
aS'dummy'
p1448
aS'dump'
p1449
aS'dumt'
p1450
aS'dup'
p1451
aVduply
p1452
aS'durch'
p1453
aVdurtevr
p1454
aS'dus'
p1455
aS'dust'
p1456
aVduty
p1457
aS'duuuuhhh'
p1458
aS'dwd100'
p1459
aS'dying'
p1460
aS'dyn'
p1461
aS'e'
p1462
aVear
p1463
aS'earbud'
p1464
aS'earn'
p1465
aS'east'
p1466
aVeasy
p1467
aS'ebay'
p1468
aVebaymobl
p1469
aS'ebook'
p1470
aS'ecdl'
p1471
aS'echo'
p1472
aS'echt'
p1473
aS'eclips'
p1474
aS'ecm'
p1475
aS'eco'
p1476
aVecommerc
p1477
aS'econ'
p1478
aVeconom
p1479
aS'ecuad'
p1480
aS'ed'
p1481
aS'edg'
p1482
aVedit
p1483
aS'edu'
p1484
aS'edu11'
p1485
aS'educ'
p1486
aVeducaus
p1487
aS'edycj'
p1488
aS'ee'
p1489
aVeed
p1490
aS'een'
p1491
aS'eerst'
p1492
aS'eeu'
p1493
aS'effect'
p1494
aS'efff'
p1495
aVefficy
p1496
aS'effort'
p1497
aS'effortless'
p1498
aS'efm'
p1499
aS'eft'
p1500
aS'eh'
p1501
aS'eharmony'
p1502
aS'ehemalig'
p1503
aS'ehhhh'
p1504
aVeigenteksteerst
p1505
aS'eigentlich'
p1506
aS'ein'
p1507
aS'einem'
p1508
aS'einfach'
p1509
aS'eingeloggt'
p1510
aS'einzeln'
p1511
aS'eit'
p1512
aVekr
p1513
aS'ekran'
p1514
aS'el'
p1515
aVelect
p1516
aVelectron
p1517
aVeleg
p1518
aS'elelegido'
p1519
aS'elig'
p1520
aS'elit'
p1521
aS'ello'
p1522
aVelop
p1523
aVem
p1524
aS'email'
p1525
aS'emb'
p1526
aVemc
p1527
aVemerg
p1528
aS'emoj'
p1529
aS'emoticon'
p1530
aS'emp'
p1531
aS'empez'
p1532
aS'empezando'
p1533
aVemphas
p1534
aS'empiez'
p1535
aS'empir'
p1536
aS'empleo'
p1537
aS'employ'
p1538
aS'empolg'
p1539
aVempow
p1540
aS'emptythr'
p1541
aS'emul'
p1542
aS'en'
p1543
aS'enaz'
p1544
aVencant
p1545
aVencontr
p1546
aS'encontrado'
p1547
aS'encount'
p1548
aS'encrypt'
p1549
aS'encuentro'
p1550
aS'end'
p1551
aS'endast'
p1552
aS'endlich'
p1553
aVenemy
p1554
aS'energ'
p1555
aS'enfin'
p1556
aS'eng'
p1557
aS'engin'
p1558
aVenh
p1559
aS'enhet'
p1560
aS'enig'
p1561
aS'enjekomttelaatmetjetoestel'
p1562
aS'enjoy'
p1563
aVenl
p1564
aVenlac
p1565
aS'enlight'
p1566
aS'enorm'
p1567
aVent
p1568
aS'entend'
p1569
aVentendera
p1570
aS'enterpr'
p1571
aS'entertain'
p1572
aS'enthousiasm'
p1573
aS'entiendo'
p1574
aS'entir'
p1575
aS'enton'
p1576
aVentont
p1577
aS'entr'
p1578
aVentrepr
p1579
aS'entretenid'
p1580
aS'entro'
p1581
aS'entz'
p1582
aS'envid'
p1583
aVenviron
p1584
aS'envuelto'
p1585
aVenvy
p1586
aS'epharm'
p1587
aS'epicfail'
p1588
aS'epicwin'
p1589
aS'epub'
p1590
aS'eq'
p1591
aS'equipo'
p1592
aS'equivoqu'
p1593
aS'er'
p1594
aVerbid
p1595
aS'erfolgssp'
p1596
aS'erg'
p1597
aS'ericson'
p1598
aS'ericsson'
p1599
aS'erik'
p1600
aS'ermos'
p1601
aS'erneut'
p1602
aS'erp'
p1603
aS'erstklassig'
p1604
aS'erweitert'
p1605
aS'ery'
p1606
aS'es'
p1607
aS'escalabilidad'
p1608
aS'escap'
p1609
aS'escolha'
p1610
aS'escort'
p1611
aS'escrevendo'
p1612
aS'escrib'
p1613
aVescribio
p1614
aS'escribo'
p1615
aS'escuch'
p1616
aVescuchado
p1617
aS'eso'
p1618
aS'esoy'
p1619
aS'esp'
p1620
aVespec
p1621
aS'especificac'
p1622
aS'espefif'
p1623
aS'esper'
p1624
aS'esperado'
p1625
aVesperanz
p1626
aS'espero'
p1627
aVesqu
p1628
aS'esqueciido'
p1629
aS'ess'
p1630
aS'essay'
p1631
aS'est'
p1632
aS'esta'
p1633
aS'estado'
p1634
aS'estav'
p1635
aS'esto'
p1636
aS'estou'
p1637
aS'estoy'
p1638
aS'estudi'
p1639
aS'estudio'
p1640
aS'et'
p1641
aS'eth'
p1642
aS'ethernet'
p1643
aS'ethiop'
p1644
aS'etso'
p1645
aS'ettu'
p1646
aS'eu'
p1647
aS'euro'
p1648
aVeurop
p1649
aVevaluaty
p1650
aS'evangel'
p1651
aS'evento'
p1652
aS'everson'
p1653
aS'everybody'
p1654
aS'everyday'
p1655
aS'everytim'
p1656
aS'evil'
p1657
aS'evo'
p1658
aVevoluz
p1659
aS'evolv'
p1660
aS'evrop'
p1661
aS'ex'
p1662
aS'exact'
p1663
aS'excel'
p1664
aS'exchang'
p1665
aS'exchg'
p1666
aS'excit'
p1667
aS'exclaim'
p1668
aVexclud
p1669
aVexcluir
p1670
aS'exclusivo'
p1671
aVexec
p1672
aVexecut
p1673
aS'exerc'
p1674
aS'existir'
p1675
aVexp
p1676
aS'expand'
p1677
aS'expect'
p1678
aS'expectac'
p1679
aVexpend
p1680
aS'expensivepaperweight'
p1681
aS'experienc'
p1682
aS'experimento'
p1683
aS'expert'
p1684
aVexpery
p1685
aS'expl'
p1686
aS'explain'
p1687
aS'explic'
p1688
aVexplicarm
p1689
aS'explod'
p1690
aS'expo'
p1691
aS'expos'
p1692
aS'ext'
p1693
aS'extend'
p1694
aVextens
p1695
aVextr
p1696
aS'extrem'
p1697
aS'ey'
p1698
aS'f'
p1699
aS'f8ball'
p1700
aS'fab'
p1701
aS'fabr'
p1702
aS'fac'
p1703
aS'facebook'
p1704
aS'facebookoff'
p1705
aS'faceboook'
p1706
aVfacialunlock
p1707
aS'fact'
p1708
aS'facul'
p1709
aS'fad'
p1710
aVfai
p1711
aVfail
p1712
aS'failstevejob'
p1713
aS'fair'
p1714
aS'fais'
p1715
aVfait
p1716
aS'fak'
p1717
aS'fal'
p1718
aS'fall'
p1719
aS'falla'
p1720
aS'falloir'
p1721
aS'falt'
p1722
aS'fan'
p1723
aVfant
p1724
aS'far'
p1725
aS'farh'
p1726
aVfarrel
p1727
aS'fast'
p1728
aS'fat'
p1729
aS'fato'
p1730
aS'fault'
p1731
aS'fav'
p1732
aS'favorit'
p1733
aS'favorito'
p1734
aS'faz'
p1735
aS'fazendo'
p1736
aS'fb'
p1737
aS'fcbk'
p1738
aS'fcuck'
p1739
aS'fdp'
p1740
aS'feat'
p1741
aS'fed'
p1742
aS'fee'
p1743
aS'feedback'
p1744
aS'feeel'
p1745
aS'feel'
p1746
aS'feet'
p1747
aS'fego'
p1748
aVfehl
p1749
aS'feir'
p1750
aS'fel'
p1751
aVfelicitac
p1752
aVfellow
p1753
aS'fen'
p1754
aS'ferrant'
p1755
aS'ff'
p1756
aS'ffnen'
p1757
aS'fi'
p1758
aVfiant
p1759
aS'fic'
p1760
aS'fica'
p1761
aS'ficando'
p1762
aS'fico'
p1763
aS'ficou'
p1764
aVfict
p1765
aS'fig'
p1766
aS'fight'
p1767
aS'fiic'
p1768
aVfijn
p1769
aS'fik'
p1770
aS'fileserv'
p1771
aS'film'
p1772
aS'filt'
p1773
aS'filtr'
p1774
aS'fily'
p1775
aS'fin'
p1776
aS'finallycool'
p1777
aS'financieel'
p1778
aS'financiero'
p1779
aS'fing'
p1780
aS'fingerscross'
p1781
aS'finit'
p1782
aVfinland
p1783
aVfirefox
p1784
aS'firewir'
p1785
aS'firm'
p1786
aVfirmw
p1787
aS'fisc'
p1788
aVfisic
p1789
aS'fit'
p1790
aVfix
p1791
aS'fixit'
p1792
aS'fl'
p1793
aVflash
p1794
aS'flashcard'
p1795
aS'flawless'
p1796
aS'fleet'
p1797
aS'flexibilidad'
p1798
aS'flink'
p1799
aS'flip'
p1800
aS'flipando'
p1801
aS'flllws'
p1802
aS'flojer'
p1803
aS'flow'
p1804
aS'flv'
p1805
aS'fn'
p1806
aS'fo'
p1807
aVfoc
p1808
aS'fod'
p1809
aS'foi'
p1810
aVfold
p1811
aS'folk'
p1812
aS'follow'
p1813
aS'followback'
p1814
aS'followdaibosyu'
p1815
aS'followfriday'
p1816
aS'followlimitisgay'
p1817
aS'followm'
p1818
aS'followmejp'
p1819
aS'follownow'
p1820
aS'fom'
p1821
aS'fon'
p1822
aS'fonct'
p1823
aS'fondo'
p1824
aS'fono'
p1825
aS'font'
p1826
aVfoody
p1827
aS'fool'
p1828
aVfoon
p1829
aS'forb'
p1830
aS'forc'
p1831
aVford
p1832
aS'fordert'
p1833
aS'forev'
p1834
aS'foreveralon'
p1835
aS'forex'
p1836
aS'forg'
p1837
aS'forget'
p1838
aS'forgettin'
p1839
aS'forgot'
p1840
aVforimmed
p1841
aS'forma'
p1842
aS'formac'
p1843
aS'fors'
p1844
aS'fortfarand'
p1845
aS'forward'
p1846
aS'foss'
p1847
aS'fot'
p1848
aS'foto'
p1849
aS'fotograf'
p1850
aS'fotost'
p1851
aS'fou'
p1852
aS'fox'
p1853
aS'fr'
p1854
aS'fran'
p1855
aS'franch'
p1856
aVfrancisco
p1857
aVfrant
p1858
aS'fras'
p1859
aS'fre'
p1860
aS'freak'
p1861
aS'freeg'
p1862
aVfreel
p1863
aS'freestyl'
p1864
aS'freez'
p1865
aS'french'
p1866
aVfrent
p1867
aS'fresh'
p1868
aS'frework'
p1869
aS'fri'
p1870
aS'friend'
p1871
aS'fring'
p1872
aS'frio'
p1873
aS'frown'
p1874
aS'froz'
p1875
aVfruit
p1876
aS'frust'
p1877
aS'fruta'
p1878
aVfsf
p1879
aS'ft'
p1880
aS'fuck'
p1881
aS'fuckin'
p1882
aS'fuckyoum'
p1883
aS'fue'
p1884
aS'fuel'
p1885
aS'fuer'
p1886
aS'fuh'
p1887
aS'fui'
p1888
aS'fuieskecido'
p1889
aS'fullscreen'
p1890
aS'fulmin'
p1891
aS'fun'
p1892
aS'funcion'
p1893
aS'funcionalidad'
p1894
aVfunct
p1895
aS'fund'
p1896
aS'fundando'
p1897
aS'fung'
p1898
aS'funniest'
p1899
aS'funny'
p1900
aVfunt
p1901
aS'funzion'
p1902
aS'fut'
p1903
aS'futuro'
p1904
aS'fuzzbal'
p1905
aS'g'
p1906
aS'ga'
p1907
aS'gaaf'
p1908
aVgaan
p1909
aS'gaat'
p1910
aS'gadget'
p1911
aVgain
p1912
aS'gal'
p1913
aVgalaxy
p1914
aS'galaxy_nexus'
p1915
aS'galaxynex'
p1916
aS'galer'
p1917
aS'galera'
p1918
aVgalery
p1919
aS'gallery'
p1920
aVgan
p1921
aVganando
p1922
aS'ganaron'
p1923
aS'gann'
p1924
aVgano
p1925
aS'ganun'
p1926
aVgaranty
p1927
aS'garn'
p1928
aS'garotanachuv'
p1929
aVgartnersym
p1930
aS'gat'
p1931
aS'gato'
p1932
aS'gav'
p1933
aS'gazet'
p1934
aS'gbar'
p1935
aS'gd'
p1936
aS'gdap'
p1937
aS'ge'
p1938
aS'gear'
p1939
aS'gebruik'
p1940
aVgeby
p1941
aVgec
p1942
aS'geeft'
p1943
aS'geek'
p1944
aS'geekfact'
p1945
aS'geekwir'
p1946
aS'gefund'
p1947
aS'geg'
p1948
aS'gehabt'
p1949
aS'geld'
p1950
aS'gelec'
p1951
aVgeleerd
p1952
aS'gelijk'
p1953
aS'gem'
p1954
aVgemaakt
p1955
aS'gen'
p1956
aS'genau'
p1957
aS'generad'
p1958
aS'geni'
p1959
aS'genoeg'
p1960
aS'gent'
p1961
aS'gentl'
p1962
aS'geny'
p1963
aS'geographictarget'
p1964
aVgeoloco
p1965
aS'gepresenteerd'
p1966
aS'ger'
p1967
aS'gerardopaolillo'
p1968
aS'ges'
p1969
aS'gest'
p1970
aS'gettin'
p1971
aVgev
p1972
aS'gevecht'
p1973
aS'geweigerd'
p1974
aS'geweldig'
p1975
aVgezy
p1976
aS'gf'
p1977
aS'gfel'
p1978
aS'gfs'
p1979
aS'ggen'
p1980
aS'gi'
p1981
aS'giant'
p1982
aS'gic'
p1983
aS'gica'
p1984
aS'gift'
p1985
aS'gig'
p1986
aS'gigaom'
p1987
aS'gigo'
p1988
aVgimmy
p1989
aS'gina'
p1990
aS'ging'
p1991
aS'gingerbread'
p1992
aS'gingrich'
p1993
aS'gio'
p1994
aS'giorno'
p1995
aVgiqu
p1996
aVgirl
p1997
aVgist
p1998
aS'gitex'
p1999
aS'giveaway'
p2000
aS'giveitup'
p2001
aS'gizmo'
p2002
aS'gizmolog'
p2003
aS'glad'
p2004
aVglasvezel
p2005
aS'glaub'
p2006
aS'glend'
p2007
aS'glitch'
p2008
aS'glob'
p2009
aVglor
p2010
aS'glut'
p2011
aS'gm'
p2012
aVgmail
p2013
aS'gmus'
p2014
aS'gn'
p2015
aS'gnu'
p2016
aS'gnutt'
p2017
aS'goalset'
p2018
aS'god'
p2019
aS'goe'
p2020
aS'goed'
p2021
aS'goen'
p2022
aS'goin'
p2023
aS'going'
p2024
aS'gold'
p2025
aVgolp
p2026
aS'gom'
p2027
aS'gon'
p2028
aS'gonn'
p2029
aS'good'
p2030
aS'goodnew'
p2031
aS'goodnight'
p2032
aS'goodnightpeopl'
p2033
aS'goodnightworld'
p2034
aS'goodnit'
p2035
aS'goodtoknow'
p2036
aVgoodwil
p2037
aS'goog'
p2038
aS'googl'
p2039
aS'googland'
p2040
aS'googleap'
p2041
aS'googledoc'
p2042
aVgooglenew
p2043
aVgooglepand
p2044
aS'googlephon'
p2045
aS'googlepl'
p2046
aS'googlesearch'
p2047
aS'googletoolb'
p2048
aS'googlewatchblog'
p2049
aS'goos'
p2050
aS'gorinchem'
p2051
aS'gosoc'
p2052
aS'gost'
p2053
aS'gostando'
p2054
aS'gostar'
p2055
aS'goste'
p2056
aS'got'
p2057
aS'gott'
p2058
aS'goud'
p2059
aS'govern'
p2060
aS'govh'
p2061
aS'gplus'
p2062
aS'gps'
p2063
aS'gr'
p2064
aS'grab'
p2065
aVgracia
p2066
aS'gran'
p2067
aS'grand'
p2068
aS'grantthornton'
p2069
aVgraph
p2070
aVgraphicsworkst
p2071
aS'grasiia'
p2072
aS'grass'
p2073
aS'grat'
p2074
aS'grav'
p2075
aS'graxiia'
p2076
aS'gray'
p2077
aVgrazy
p2078
aVgrde
p2079
aS'gre'
p2080
aS'gread'
p2081
aS'greatsuccess'
p2082
aS'green'
p2083
aVgreenest
p2084
aVgreenrank
p2085
aS'greenwich'
p2086
aS'grew'
p2087
aS'grietict'
p2088
aVgrin
p2089
aS'grind'
p2090
aVgro
p2091
aS'groeipo'
p2092
aS'groeit'
p2093
aS'grolschvest'
p2094
aS'gron'
p2095
aS'ground'
p2096
aS'group'
p2097
aS'groupon'
p2098
aS'groupw'
p2099
aVgroupy
p2100
aS'grow'
p2101
aS'growuppeterp'
p2102
aS'grrrr'
p2103
aVgrupo
p2104
aS'gsi'
p2105
aS'gt'
p2106
aVgtem
p2107
aS'guacay'
p2108
aS'guadalajar'
p2109
aS'guar'
p2110
aS'guard'
p2111
aS'gud'
p2112
aS'gudnit'
p2113
aVguess
p2114
aS'guest'
p2115
aS'gui'
p2116
aVgulp
p2117
aS'gunaiii'
p2118
aS'gundotr'
p2119
aS'gunn'
p2120
aS'guru'
p2121
aS'gust'
p2122
aS'gustando'
p2123
aS'gut'
p2124
aS'guy'
p2125
aS'h'
p2126
aS'ha'
p2127
aS'haalt'
p2128
aS'hab'
p2129
aS'haberleryoruml'
p2130
aS'habilidad'
p2131
aS'habit'
p2132
aS'habl'
p2133
aVhablo
p2134
aS'habra'
p2135
aS'hac'
p2136
aS'hack'
p2137
aS'hackeado'
p2138
aS'hackeo'
p2139
aS'hadop'
p2140
aS'hah'
p2141
aS'hahah'
p2142
aVhahahah
p2143
aVhahahahhah
p2144
aS'hahahhah'
p2145
aS'hain'
p2146
aVhair
p2147
aS'hairlin'
p2148
aVhal
p2149
aS'half'
p2150
aS'hallelujah'
p2151
aS'halo'
p2152
aS'han'
p2153
aVhanbel
p2154
aS'hand'
p2155
aS'handel'
p2156
aS'handig'
p2157
aS'handl'
p2158
aS'handmatig'
p2159
aS'handset'
p2160
aS'handy'
p2161
aS'hang'
p2162
aVhangout
p2163
aS'hap'
p2164
aS'happy'
p2165
aS'hapt'
p2166
aS'har'
p2167
aS'hard'
p2168
aS'hardw'
p2169
aS'harmonix'
p2170
aS'harp'
p2171
aS'harshgandhitk'
p2172
aVharvard
p2173
aS'hasht'
p2174
aS'hasn'
p2175
aS'hast'
p2176
aS'hat'
p2177
aS'haut'
p2178
aS'havin'
p2179
aS'hay'
p2180
aS'hcsmeu'
p2181
aS'hd'
p2182
aS'hdmi'
p2183
aS'hdv'
p2184
aS'head'
p2185
aS'headlin'
p2186
aVheadphon
p2187
aS'heal'
p2188
aVhealthit
p2189
aS'healthvault'
p2190
aS'hear'
p2191
aS'heard'
p2192
aS'heart'
p2193
aS'heavy'
p2194
aS'heb'
p2195
aS'heck'
p2196
aS'hect'
p2197
aVhedicho
p2198
aVheeft
p2199
aS'heh'
p2200
aS'heheh'
p2201
aS'hehh'
p2202
aS'heis'
p2203
aS'hel'
p2204
aS'hell'
p2205
aS'hellmu'
p2206
aS'hello'
p2207
aS'hellyeah'
p2208
aS'help'
p2209
aVhelsink
p2210
aS'helt'
p2211
aS'helvetic'
p2212
aS'hem'
p2213
aS'hemp'
p2214
aVhendrick
p2215
aS'hennessyn'
p2216
aS'hermanit'
p2217
aS'hero'
p2218
aS'herrienta'
p2219
aS'het'
p2220
aS'heur'
p2221
aS'heut'
p2222
aVhey
p2223
aS'hi'
p2224
aS'hib'
p2225
aS'hid'
p2226
aS'hierov'
p2227
aS'hig'
p2228
aS'high'
p2229
aVhighlight
p2230
aVhighscoolmem
p2231
aS'hij'
p2232
aVhil
p2233
aS'hillsd'
p2234
aS'hind'
p2235
aS'hinw'
p2236
aS'hipocrita'
p2237
aS'hipst'
p2238
aS'hir'
p2239
aS'hiso'
p2240
aS'hisp'
p2241
aS'hiss'
p2242
aS'hissy'
p2243
aS'hist'
p2244
aS'histor'
p2245
aS'hit'
p2246
aS'hitech'
p2247
aS'hj'
p2248
aS'hk'
p2249
aS'hm'
p2250
aS'hmm'
p2251
aS'hmmm'
p2252
aS'hnew'
p2253
aVho
p2254
aS'hock'
p2255
aS'hoe'
p2256
aS'hogwart'
p2257
aS'hoh'
p2258
aS'hoj'
p2259
aS'hol'
p2260
aVhold
p2261
aS'holdem'
p2262
aS'holiday'
p2263
aS'holodeck'
p2264
aS'holodesk'
p2265
aS'hom'
p2266
aS'homedepot'
p2267
aVhomeless
p2268
aS'hon'
p2269
aS'hond'
p2270
aS'honey'
p2271
aS'honeycomb'
p2272
aS'hong'
p2273
aS'hongkong'
p2274
aS'hoo'
p2275
aS'hookup'
p2276
aS'hop'
p2277
aS'hoppa'
p2278
aS'hor'
p2279
aS'hora'
p2280
aS'horariodeverao'
p2281
aVhorizont
p2282
aS'horroch'
p2283
aVhors
p2284
aS'host'
p2285
aVhot
p2286
aS'hotel'
p2287
aS'hotmail'
p2288
aS'hotspot'
p2289
aS'hour'
p2290
aVhous
p2291
aS'household'
p2292
aS'houston'
p2293
aS'hoy'
p2294
aS'hp'
p2295
aS'hpc'
p2296
aS'hq'
p2297
aS'hr'
p2298
aS'hrs'
p2299
aS'hrung'
p2300
aS'ht'
p2301
aVhtc
p2302
aVhtl
p2303
aS'htt'
p2304
aS'http'
p2305
aVhttps
p2306
aS'hubby'
p2307
aS'hubo'
p2308
aVhueon
p2309
aVhuffington
p2310
aVhuffpost
p2311
aS'hug'
p2312
aS'hui'
p2313
aS'hulu'
p2314
aS'hum'
p2315
aS'humantraffick'
p2316
aS'humbl'
p2317
aS'humilh'
p2318
aS'humo'
p2319
aS'hungry'
p2320
aS'hurry'
p2321
aS'hurt'
p2322
aS'hut'
p2323
aS'hvac'
p2324
aS'hvord'
p2325
aS'hyp'
p2326
aS'hyperlink'
p2327
aS'hyperv'
p2328
aS'hypo'
p2329
aVhypocrit
p2330
aVhyvesspellets
p2331
aS'ia'
p2332
aS'iadmir'
p2333
aS'ib'
p2334
aS'ibm'
p2335
aS'ibook'
p2336
aVic
p2337
aS'ice_cre_sandwich'
p2338
aS'icecr'
p2339
aS'icecresandwich'
p2340
aS'icecresandwichfail'
p2341
aS'icelebr'
p2342
aS'ich'
p2343
aS'ichiro_'
p2344
aS'icloud'
p2345
aS'iclould'
p2346
aS'icon'
p2347
aS'icpc'
p2348
aS'ict'
p2349
aS'id'
p2350
aS'ide'
p2351
aS'idea'
p2352
aS'ident'
p2353
aS'idiotec'
p2354
aS'idisk'
p2355
aS'idk'
p2356
aS'ie8'
p2357
aS'iesgo'
p2358
aS'ifb'
p2359
aS'ifollowback'
p2360
aS'iful'
p2361
aS'ig'
p2362
aS'igloo'
p2363
aS'ign'
p2364
aS'igo'
p2365
aS'ih'
p2366
aS'ihateitwh'
p2367
aS'ihateyourightnow'
p2368
aS'ihr'
p2369
aS'ihrem'
p2370
aS'ii'
p2371
aS'ik'
p2372
aVil
p2373
aS'illust'
p2374
aS'ilovey'
p2375
aS'ilumin'
p2376
aS'im'
p2377
aS'imac'
p2378
aS'imagin'
p2379
aS'imagino'
p2380
aS'imess'
p2381
aS'imit'
p2382
aS'imjusaskin'
p2383
aVimmedy
p2384
aS'immin'
p2385
aS'immobilienbewirtschaftung'
p2386
aS'imo'
p2387
aVimpact
p2388
aS'imperson'
p2389
aS'impl'
p2390
aVimport
p2391
aS'importanc'
p2392
aS'imposs'
p2393
aS'impres'
p2394
aVimpress
p2395
aS'impression'
p2396
aS'impressionado'
p2397
aS'improv'
p2398
aS'impuls'
p2399
aS'imron'
p2400
aS'inbox'
p2401
aS'inbuilt'
p2402
aS'inc'
p2403
aS'incap'
p2404
aS'incl'
p2405
aS'includ'
p2406
aS'incomp'
p2407
aS'incompat'
p2408
aVinconveny
p2409
aVincorrect
p2410
aS'incre'
p2411
aVincreas
p2412
aVincred
p2413
aS'incrivel'
p2414
aS'ind'
p2415
aS'index'
p2416
aS'indic'
p2417
aS'indicadoresdegest'
p2418
aS'indirect'
p2419
aS'indirectaaa'
p2420
aS'indisp'
p2421
aVindustry
p2422
aVindy
p2423
aVineedthosepict
p2424
aS'inend'
p2425
aVinept
p2426
aS'inf'
p2427
aS'inferno'
p2428
aS'infinit'
p2429
aS'infinito'
p2430
aVinfinitywebin
p2431
aS'influ'
p2432
aS'info'
p2433
aS'infofail'
p2434
aS'infograph'
p2435
aS'inform'
p2436
aS'informac'
p2437
aS'informativo'
p2438
aVinformaz
p2439
aS'inforpa'
p2440
aS'infosy'
p2441
aVinfrastruct
p2442
aVingewikkeld
p2443
aVingl
p2444
aS'inicio'
p2445
aVinit
p2446
aViniz
p2447
aS'inlin'
p2448
aS'inn'
p2449
aS'innov'
p2450
aS'innovac'
p2451
aS'innovat'
p2452
aS'input'
p2453
aVins
p2454
aS'inscrav'
p2455
aS'inscrev'
p2456
aS'insert'
p2457
aVinsid
p2458
aVinsight
p2459
aS'insign'
p2460
aS'insist'
p2461
aVinsolv
p2462
aS'insomnio'
p2463
aS'inspir'
p2464
aS'inst'
p2465
aS'instal'
p2466
aS'installer'
p2467
aS'instantan'
p2468
aS'instantfollowback'
p2469
aVinstead
p2470
aS'instel'
p2471
aVinstitut
p2472
aS'instru'
p2473
aS'instruct'
p2474
aS'insulta'
p2475
aS'intao'
p2476
aVintegr
p2477
aS'integrac'
p2478
aVintegrad
p2479
aS'inteiro'
p2480
aVintel
p2481
aS'intend'
p2482
aS'interact'
p2483
aS'interactu'
p2484
aS'interes'
p2485
aS'interesado'
p2486
aS'interess'
p2487
aS'interfac'
p2488
aS'interfaz'
p2489
aS'intern'
p2490
aVinternas
p2491
aS'internet'
p2492
aS'internethighschoolofeduc'
p2493
aVinterop
p2494
aVinterrupt
p2495
aS'interv'
p2496
aS'interview'
p2497
aS'intervist'
p2498
aS'interweb'
p2499
aS'intikhab'
p2500
aVintrducty
p2501
aS'intrigu'
p2502
aS'introduc'
p2503
aVintuit
p2504
aS'intun'
p2505
aS'inv'
p2506
aS'invad'
p2507
aS'invento'
p2508
aS'invertimo'
p2509
aS'invest'
p2510
aS'investig'
p2511
aS'involv'
p2512
aS'io'
p2513
aS'ios5'
p2514
aVip
p2515
aS'ipad'
p2516
aS'ipad2'
p2517
aS'ipd'
p2518
aS'ipexpo'
p2519
aS'iphon'
p2520
aS'iphone4s'
p2521
aS'iphoto'
p2522
aS'ipo'
p2523
aS'ipod'
p2524
aS'ipod4s'
p2525
aS'ipodzomb'
p2526
aS'ipso'
p2527
aS'ir'
p2528
aS'irain'
p2529
aVirgendwy
p2530
aS'irl'
p2531
aVirm
p2532
aS'irony'
p2533
aVirs
p2534
aS'irvin'
p2535
aS'isaa'
p2536
aVisb
p2537
aViscr
p2538
aS'iscs'
p2539
aS'isn'
p2540
aS'isnst'
p2541
aS'isso'
p2542
aS'issu'
p2543
aS'ist'
p2544
aS'istep'
p2545
aS'istoriju'
p2546
aS'isv'
p2547
aVitem
p2548
aS'itmed'
p2549
aVito
p2550
aS'itouch'
p2551
aVitpro
p2552
aS'itsec'
p2553
aS'itstol'
p2554
aS'ittrain'
p2555
aS'itun'
p2556
aS'itunesmatch'
p2557
aS'itunesstoresupport'
p2558
aS'iuehaiuaheiuhaeiuh'
p2559
aS'iv'
p2560
aS'iwantanautomaticpromot'
p2561
aS'izad'
p2562
aS'j'
p2563
aS'ja'
p2564
aS'jaan'
p2565
aS'jacket'
p2566
aS'jacob'
p2567
aS'jad'
p2568
aS'jag'
p2569
aS'jaiku'
p2570
aS'jail'
p2571
aS'jailbrok'
p2572
aVjaj
p2573
aS'jajaj'
p2574
aS'jajajaj'
p2575
aS'jajajajaj'
p2576
aS'jajajajajaj'
p2577
aVjajajajajajajas
p2578
aVjajajajajajas
p2579
aVjajajas
p2580
aS'jajjaja'
p2581
aVjak
p2582
aS'jan'
p2583
aS'janm'
p2584
aS'jap'
p2585
aS'japanes'
p2586
aS'je'
p2587
aS'jean'
p2588
aS'jed'
p2589
aS'jej'
p2590
aS'jeremey'
p2591
aS'jerkoffm'
p2592
aS'jes'
p2593
aS'jetzt'
p2594
aS'jewel'
p2595
aS'jewelry'
p2596
aS'jijijij'
p2597
aS'jizz'
p2598
aVjk
p2599
aS'jme'
p2600
aS'job'
p2601
aS'jod'
p2602
aS'jog'
p2603
aS'jogo'
p2604
aS'john'
p2605
aS'join'
p2606
aS'joint'
p2607
aS'jok'
p2608
aS'jorg'
p2609
aS'jou'
p2610
aS'jouit'
p2611
aS'jour'
p2612
aS'journ'
p2613
aS'ju'
p2614
aS'juela'
p2615
aS'jugad'
p2616
aS'juic'
p2617
aS'juicio'
p2618
aS'juick'
p2619
aS'jum'
p2620
aVjump
p2621
aS'jungl'
p2622
aVjunky
p2623
aS'junkyard'
p2624
aS'junt'
p2625
aVjunto
p2626
aS'jurab'
p2627
aS'jus'
p2628
aS'just'
p2629
aS'justbecaus'
p2630
aS'justo'
p2631
aS'justsay'
p2632
aS'justsayin'
p2633
aS'juventud'
p2634
aS'jwn'
p2635
aS'k'
p2636
aS'kabinet'
p2637
aS'kaif'
p2638
aS'kaliforn'
p2639
aVkan
p2640
aS'kany'
p2641
aVkapot
p2642
aS'kar'
p2643
aS'karaok'
p2644
aS'karo'
p2645
aS'kas'
p2646
aVkasp
p2647
aS'kat'
p2648
aVkaty
p2649
aS'kaun'
p2650
aS'kayo'
p2651
aS'kazdem'
p2652
aVke
p2653
aS'keadil'
p2654
aVkeepsak
p2655
aS'keepthedesktop'
p2656
aS'kein'
p2657
aS'kelkesw'
p2658
aS'kelley'
p2659
aS'keny'
p2660
aVkenyaopendo
p2661
aS'ker'
p2662
aS'ketu'
p2663
aS'key'
p2664
aS'keyboard'
p2665
aS'keynot'
p2666
aS'keynoteu'
p2667
aS'keyword'
p2668
aVkhoslav
p2669
aS'ki'
p2670
aS'kick'
p2671
aS'kickoff'
p2672
aS'kid'
p2673
aS'kiit'
p2674
aVkijk
p2675
aS'kikitoutd'
p2676
aS'kil'
p2677
aS'kind'
p2678
aS'kinect'
p2679
aS'kis'
p2680
aS'kisesesseseseseseses'
p2681
aS'kiss'
p2682
aS'kit'
p2683
aS'kk'
p2684
aS'kkk'
p2685
aS'kkkkkk'
p2686
aS'kkkkkkk'
p2687
aS'klick'
p2688
aS'klingelt'
p2689
aS'klout'
p2690
aS'knap'
p2691
aS'kne'
p2692
aS'knew'
p2693
aS'kno'
p2694
aS'know'
p2695
aS'known'
p2696
aS'ko'
p2697
aS'koal'
p2698
aS'kofax'
p2699
aS'kom'
p2700
aS'kompl'
p2701
aS'kompr'
p2702
aS'kong'
p2703
aS'kontrak'
p2704
aS'kontrol'
p2705
aVkonz
p2706
aS'koopt'
p2707
aS'koppel'
p2708
aVkorb
p2709
aS'kost'
p2710
aS'kostenlo'
p2711
aS'kostenlos'
p2712
aVkpi
p2713
aS'krachtigst'
p2714
aS'kran'
p2715
aS'krass'
p2716
aVkraus
p2717
aS'kreo'
p2718
aVkrijg
p2719
aS'krijgt'
p2720
aS'krok'
p2721
aS'kroz'
p2722
aS'ksoaksopk'
p2723
aS'kun'
p2724
aVkunt
p2725
aS'kur'
p2726
aS'kurz'
p2727
aS'kvar'
p2728
aS'kwijt'
p2729
aS'kys'
p2730
aVl
p2731
aS'la'
p2732
aS'laa'
p2733
aVlaaf
p2734
aS'laah'
p2735
aS'laatst'
p2736
aS'lab'
p2737
aVlachmoments
p2738
aS'lack'
p2739
aVlady
p2740
aS'lag'
p2741
aS'laiss'
p2742
aS'lalylok'
p2743
aS'lan'
p2744
aVland
p2745
aS'landscap'
p2746
aS'lang'
p2747
aS'langs'
p2748
aS'langt'
p2749
aS'langu'
p2750
aS'lanz'
p2751
aS'lanzar'
p2752
aS'lanziento'
p2753
aS'laps'
p2754
aS'laptop'
p2755
aS'laptopwebc'
p2756
aVlar
p2757
aS'larg'
p2758
aS'largo'
p2759
aS'las'
p2760
aS'lass'
p2761
aS'latest'
p2762
aS'latino'
p2763
aS'latiol'
p2764
aS'laugh'
p2765
aS'launch'
p2766
aS'launchfail'
p2767
aVlaw
p2768
aS'lawschool'
p2769
aS'lawsuit'
p2770
aS'lawy'
p2771
aS'lay'
p2772
aVlayout
p2773
aS'le'
p2774
aS'lea'
p2775
aS'lead'
p2776
aS'lean'
p2777
aS'learn'
p2778
aS'leas'
p2779
aS'leav'
p2780
aS'leccionesparalavid'
p2781
aVlect
p2782
aVlection
p2783
aS'led'
p2784
aS'lee'
p2785
aS'leemo'
p2786
aS'leer'
p2787
aVleerlo
p2788
aVleerz
p2789
aS'left'
p2790
aS'leg'
p2791
aS'legado'
p2792
aS'lei'
p2793
aVleiderschap
p2794
aVlekk
p2795
aS'leland'
p2796
aS'lembrado'
p2797
aS'lenbro'
p2798
aVles
p2799
aVlesson
p2800
aS'let'
p2801
aVleuk
p2802
aS'level'
p2803
aS'leverer'
p2804
aS'levin'
p2805
aS'lgfw'
p2806
aS'li'
p2807
aVlibr
p2808
aS'librero'
p2809
aS'libro'
p2810
aVlic
p2811
aS'licens'
p2812
aS'lie'
p2813
aS'lien'
p2814
aS'lieuxpubl'
p2815
aVlif
p2816
aS'lifec'
p2817
aVlift
p2818
aS'lig'
p2819
aS'light'
p2820
aS'lign'
p2821
aS'lii'
p2822
aS'lik'
p2823
aS'lil'
p2824
aS'limit'
p2825
aVlimitless
p2826
aS'lin'
p2827
aVlincoln
p2828
aS'lind'
p2829
aS'lindo'
p2830
aS'link'
p2831
aS'linkbuild'
p2832
aVlinkedin
p2833
aS'linux'
p2834
aS'lion'
p2835
aS'lis'
p2836
aS'list'
p2837
aS'lit'
p2838
aS'littl'
p2839
aVliv
p2840
aVlivr
p2841
aVlk
p2842
aS'll'
p2843
aS'llado'
p2844
aS'lleg'
p2845
aS'llegast'
p2846
aS'llego'
p2847
aS'llev'
p2848
aS'llevo'
p2849
aS'llo'
p2850
aS'lls'
p2851
aS'lmao'
p2852
aS'lmaoo'
p2853
aS'lmfao'
p2854
aS'lnt'
p2855
aS'lo'
p2856
aS'load'
p2857
aS'loath'
p2858
aVlobby
p2859
aS'loc'
p2860
aS'lock'
p2861
aS'lockscreen'
p2862
aS'loco'
p2863
aS'log'
p2864
aS'login'
p2865
aS'logitech'
p2866
aS'logo'
p2867
aS'logr'
p2868
aS'loin'
p2869
aS'loj'
p2870
aS'lol'
p2871
aS'lolol'
p2872
aS'lolz'
p2873
aVlombok
p2874
aS'lomp'
p2875
aS'lon'
p2876
aVlondon
p2877
aS'long'
p2878
aS'look'
p2879
aVlookin
p2880
aVlookitup
p2881
aS'lookout'
p2882
aS'lookup'
p2883
aS'loop'
p2884
aS'loos'
p2885
aS'lord'
p2886
aS'los'
p2887
aVloss
p2888
aS'lost'
p2889
aS'lostasothafuck'
p2890
aVlot
p2891
aS'loud'
p2892
aS'loup'
p2893
aS'lov'
p2894
aS'lovemyiphon'
p2895
aS'lovin'
p2896
aS'low'
p2897
aVloyal
p2898
aS'lqm'
p2899
aS'lt'
p2900
aVltcartoon
p2901
aS'ltim'
p2902
aS'ltimo'
p2903
aS'luch'
p2904
aS'lucind'
p2905
aS'luck'
p2906
aS'lucky'
p2907
aS'luego'
p2908
aS'lug'
p2909
aVlui
p2910
aS'lunch'
p2911
aS'luz'
p2912
aS'ly'
p2913
aVlynt
p2914
aS'm'
p2915
aS'm10135'
p2916
aS'ma'
p2917
aS'maa'
p2918
aS'maagiin'
p2919
aS'maak'
p2920
aS'maakt'
p2921
aS'maar'
p2922
aS'mac'
p2923
aS'macbook'
p2924
aS'machin'
p2925
aS'macht'
p2926
aS'macro'
p2927
aS'mactard'
p2928
aS'macworld'
p2929
aS'madrugad'
p2930
aS'madrugo'
p2931
aS'maestro'
p2932
aVmag
p2933
aVmagazin
p2934
aS'magliet'
p2935
aS'mai'
p2936
aS'mail'
p2937
aVmain
p2938
aVmaint
p2939
aS'maior'
p2940
aS'maison'
p2941
aVmaj
p2942
aS'majo'
p2943
aS'majorfail'
p2944
aS'mak'
p2945
aS'makemeproud'
p2946
aS'makesnomovetogetupfromcomput'
p2947
aS'mal'
p2948
aVmalays
p2949
aS'mald'
p2950
aS'maldito'
p2951
aS'malon'
p2952
aS'malw'
p2953
aS'man'
p2954
aS'managerin'
p2955
aVmand
p2956
aS'mandarin'
p2957
aS'mandiento'
p2958
aS'manej'
p2959
aS'manerd'
p2960
aS'mango'
p2961
aS'manhol'
p2962
aS'manip'
p2963
aS'manny'
p2964
aS'mano'
p2965
aS'manz'
p2966
aS'map'
p2967
aS'mar'
p2968
aS'marc'
p2969
aS'march'
p2970
aS'marijuan'
p2971
aS'mark'
p2972
aVmarket
p2973
aVmarketplac
p2974
aS'markt'
p2975
aVmaroc
p2976
aVmarqu
p2977
aS'mart'
p2978
aS'martesviajero'
p2979
aS'martin'
p2980
aS'maryland'
p2981
aS'mas'
p2982
aS'masih'
p2983
aS'mast'
p2984
aS'mat'
p2985
aS'mataron'
p2986
aVmatch
p2987
aS'mathe'
p2988
aVmauva
p2989
aS'maxim'
p2990
aS'mayb'
p2991
aS'mb'
p2992
aS'mbp'
p2993
aVmcbride
p2994
aS'mccready'
p2995
aS'mcitp'
p2996
aVmcommerc
p2997
aS'mcse'
p2998
aS'mctsummitna'
p2999
aS'md'
p3000
aS'mdd'
p3001
aVmdr
p3002
aVmean
p3003
aS'meant'
p3004
aS'mech'
p3005
aS'mechanisch'
p3006
aS'med'
p3007
aS'mediagof'
p3008
aS'medidt'
p3009
aS'medio'
p3010
aS'meego'
p3011
aS'meek'
p3012
aS'meer'
p3013
aS'meesmoo'
p3014
aS'meest'
p3015
aS'meet'
p3016
aS'mehr'
p3017
aVmeil
p3018
aS'mein'
p3019
aS'meinung'
p3020
aS'mej'
p3021
aS'mejor'
p3022
aS'mejorarlo'
p3023
aVmelbourn
p3024
aS'melh'
p3025
aVmellon
p3026
aS'mem'
p3027
aS'men'
p3028
aS'mengaku'
p3029
aS'menm'
p3030
aS'meno'
p3031
aS'mens'
p3032
aVmensas
p3033
aVment
p3034
aS'menud'
p3035
aS'mercado'
p3036
aS'mercato'
p3037
aVmerchand
p3038
aS'merd'
p3039
aS'merec'
p3040
aVmeresmik
p3041
aS'meri'
p3042
aS'merk'
p3043
aS'mes'
p3044
aS'mesh'
p3045
aS'mesmo'
p3046
aS'mess'
p3047
aVmessagery
p3048
aS'messy'
p3049
aVmet
p3050
aS'metalogix'
p3051
aS'meteen'
p3052
aS'methink'
p3053
aS'method'
p3054
aS'metiendo'
p3055
aVmetio
p3056
aS'meto'
p3057
aS'metofors'
p3058
aS'metro'
p3059
aS'meu'
p3060
aS'mex'
p3061
aS'mexico'
p3062
aS'mf'
p3063
aS'mi'
p3064
aS'mia'
p3065
aS'mic'
p3066
aS'mica'
p3067
aS'mich'
p3068
aS'michaeljacksonqu'
p3069
aVmichig
p3070
aVmichigand
p3071
aS'mico'
p3072
aVmicr
p3073
aS'microso'
p3074
aS'microsof'
p3075
aS'microsoft'
p3076
aS'microsoftst'
p3077
aS'mid'
p3078
aS'middl'
p3079
aS'mierd'
p3080
aS'mieux'
p3081
aVmighty
p3082
aS'migliorato'
p3083
aS'migr'
p3084
aS'mii'
p3085
aS'miiiiiiiiiiiiiiir'
p3086
aS'mij'
p3087
aS'mijn'
p3088
aS'mik'
p3089
aS'milano'
p3090
aS'milen'
p3091
aS'miley'
p3092
aS'milh'
p3093
aVmilky
p3094
aS'mill'
p3095
aS'millon'
p3096
aS'mim'
p3097
aS'mimir'
p3098
aS'mind'
p3099
aVmindsh
p3100
aVmindt
p3101
aS'minecraft'
p3102
aS'minh'
p3103
aS'minimo'
p3104
aS'minipand'
p3105
aS'minsyu'
p3106
aS'mint'
p3107
aS'minut'
p3108
aS'minuto'
p3109
aS'mio'
p3110
aVmir
p3111
aS'mis'
p3112
aS'mism'
p3113
aVmiss
p3114
aS'mit'
p3115
aS'mittel'
p3116
aVmix
p3117
aS'mixtap'
p3118
aS'mki'
p3119
aS'mkon'
p3120
aS'mkt'
p3121
aS'mln'
p3122
aS'mm'
p3123
aS'mme'
p3124
aS'mmm'
p3125
aS'mmmm'
p3126
aVmnt
p3127
aS'mo'
p3128
aS'mob'
p3129
aS'mobiel'
p3130
aS'mobiflip'
p3131
aVmobiledev
p3132
aS'mobilem'
p3133
aS'mobilemem'
p3134
aS'mobilenew'
p3135
aVmobl
p3136
aS'mod'
p3137
aS'model'
p3138
aS'modelo'
p3139
aVmodern
p3140
aVmoe
p3141
aS'moederbedrijv'
p3142
aS'moeilijk'
p3143
aS'moet'
p3144
aVmogelijkh
p3145
aS'moi'
p3146
aS'moin'
p3147
aVmol
p3148
aS'mom'
p3149
aS'momento'
p3150
aS'mommy'
p3151
aS'mon'
p3152
aS'monday'
p3153
aVmondo
p3154
aS'money'
p3155
aS'monic'
p3156
aS'monit'
p3157
aS'monitor'
p3158
aVmonopo
p3159
aS'monopolio'
p3160
aS'mont'
p3161
aS'montaron'
p3162
aS'month'
p3163
aS'moo'
p3164
aS'mood'
p3165
aVmooy
p3166
aS'morg'
p3167
aVmorgenvroeg
p3168
aS'morgon'
p3169
aVmorn
p3170
aS'moroccomal'
p3171
aS'moron'
p3172
aS'morph'
p3173
aVmort
p3174
aS'mosc'
p3175
aS'mostlik'
p3176
aS'mostr'
p3177
aS'mot'
p3178
aS'moth'
p3179
aS'moto'
p3180
aS'motoact'
p3181
aS'motoactv'
p3182
aS'motocorp'
p3183
aS'motofail'
p3184
aS'motorcyc'
p3185
aS'motorol'
p3186
aS'mou'
p3187
aS'mouch'
p3188
aS'mourn'
p3189
aS'mous'
p3190
aVmovy
p3191
aS'mp4'
p3192
aS'mpn'
p3193
aVmpromo
p3194
aS'mr'
p3195
aS'ms'
p3196
aS'msdp'
p3197
aS'msdynerp'
p3198
aVmsft
p3199
aS'msftnews'
p3200
aS'msg'
p3201
aS'msn'
p3202
aS'msp'
p3203
aS'msptechday'
p3204
aS'mssinergija'
p3205
aS'msteched'
p3206
aS'mt'
p3207
aVmuchhh
p3208
aS'mucho'
p3209
aS'mud'
p3210
aS'muestr'
p3211
aVmugb
p3212
aS'muh'
p3213
aS'muita'
p3214
aS'mukesh'
p3215
aS'mukeshban'
p3216
aS'mul'
p3217
aS'mult'
p3218
aS'multilang'
p3219
aVmultimed
p3220
aS'multipl'
p3221
aS'multit'
p3222
aVmultitactil
p3223
aS'multitouch'
p3224
aS'mundo'
p3225
aVmus
p3226
aS'music'
p3227
aS'mustfollow'
p3228
aS'muuaahhzz'
p3229
aS'muy'
p3230
aS'muyc'
p3231
aS'mv'
p3232
aS'mvp'
p3233
aS'mvpbuzz'
p3234
aVmyself
p3235
aS'myspac'
p3236
aS'n'
p3237
aS'na'
p3238
aS'naa'
p3239
aS'naah'
p3240
aS'naar'
p3241
aS'nac'
p3242
aS'nach'
p3243
aS'nachdem'
p3244
aS'nacht'
p3245
aS'nacido'
p3246
aS'nad'
p3247
aVnady
p3248
aVnagekom
p3249
aS'nagoy'
p3250
aS'naid'
p3251
aS'naju'
p3252
aS'nao'
p3253
aVnaprosto
p3254
aS'nas'
p3255
aS'nasc'
p3256
aS'nasty'
p3257
aVnat
p3258
aS'nationalgeograph'
p3259
aS'nationaltv'
p3260
aS'natuuuuuuurlijk'
p3261
aVnaus
p3262
aS'nauw'
p3263
aVnav
p3264
aS'naveg'
p3265
aVnavid
p3266
aS'navig'
p3267
aVnavigaty
p3268
aS'naw'
p3269
aS'nb'
p3270
aS'nd'
p3271
aVndal
p3272
aS'ne'
p3273
aS'near'
p3274
aS'nearest'
p3275
aS'neat'
p3276
aS'necesit'
p3277
aS'necesita'
p3278
aVnecesito
p3279
aVneck
p3280
aVned
p3281
aVned1
p3282
aS'nee'
p3283
aS'need4s'
p3284
aS'needless'
p3285
aS'needsomethingtoread'
p3286
aS'neg'
p3287
aS'negocio'
p3288
aS'negro'
p3289
aS'nejby'
p3290
aS'nem'
p3291
aS'nemecku'
p3292
aVneowin
p3293
aVnerdverein
p3294
aVnerdy
p3295
aVnes
p3296
aS'nest'
p3297
aVnet
p3298
aS'netap'
p3299
aVnetscap
p3300
aS'network'
p3301
aS'networkin'
p3302
aS'netzwerk'
p3303
aS'neu'
p3304
aS'new'
p3305
aS'newbestfriend'
p3306
aS'newest'
p3307
aS'newf'
p3308
aS'newgadget'
p3309
aS'newmus'
p3310
aS'newsstand'
p3311
aS'newstick'
p3312
aS'newt'
p3313
aS'newtgingrich'
p3314
aS'nex'
p3315
aS'nexus_prime'
p3316
aVnexusprim
p3317
aS'nexuss'
p3318
aS'nfc'
p3319
aS'nfs'
p3320
aS'nftige'
p3321
aS'nga'
p3322
aVngert
p3323
aVni
p3324
aS'nic'
p3325
aS'nicehir'
p3326
aS'nicht'
p3327
aS'nick'
p3328
aS'nico'
p3329
aS'nie'
p3330
aS'niemand'
p3331
aVniet
p3332
aVnieuw
p3333
aVnieuwst
p3334
aS'nig'
p3335
aS'nigg'
p3336
aS'nigga'
p3337
aS'night'
p3338
aS'nightattheroxbury'
p3339
aS'nightm'
p3340
aS'nighty'
p3341
aS'niiiii'
p3342
aS'nim'
p3343
aS'ningu'
p3344
aS'ninguem'
p3345
aS'ninguno'
p3346
aS'nit'
p3347
aS'nivel'
p3348
aS'nl'
p3349
aS'noarch'
p3350
aS'nobel'
p3351
aVnobueno
p3352
aS'noc'
p3353
aS'noch'
p3354
aS'nocturn'
p3355
aS'nog'
p3356
aS'noit'
p3357
aS'noiv'
p3358
aS'nok'
p3359
aS'nokian9'
p3360
aS'nom'
p3361
aS'nombr'
p3362
aS'nomin'
p3363
aS'nonusatimezonel'
p3364
aS'noo'
p3365
aVnooky
p3366
aS'noowwwwww'
p3367
aS'nop'
p3368
aVnopaty
p3369
aS'noreallyihearvo'
p3370
aS'nortel'
p3371
aS'norway'
p3372
aS'nos'
p3373
aS'noss'
p3374
aVnotbook
p3375
aS'notebook'
p3376
aS'notgoingtolast'
p3377
aS'nothappy'
p3378
aS'notic'
p3379
aS'noticia'
p3380
aS'notific'
p3381
aS'notjustaboutthephon'
p3382
aS'notrespond'
p3383
aS'notsosuperpro'
p3384
aS'nou'
p3385
aVnouveau
p3386
aVnouvel
p3387
aS'nov'
p3388
aS'novat'
p3389
aVnovedad
p3390
aS'novel'
p3391
aS'novela'
p3392
aS'novemb'
p3393
aS'novidad'
p3394
aS'noviembr'
p3395
aS'novio'
p3396
aS'novo'
p3397
aS'nowicanspendevenmoretimeonmyphon'
p3398
aS'nowplay'
p3399
aS'noww'
p3400
aS'ns'
p3401
aVnt
p3402
aS'ntchat'
p3403
aS'nu'
p3404
aS'nuandroid'
p3405
aS'nub'
p3406
aS'nuestr'
p3407
aS'nuestra'
p3408
aS'nuestro'
p3409
aS'nuev'
p3410
aS'nueva'
p3411
aS'nuevaescuel'
p3412
aS'nuevo'
p3413
aS'nuevoooo'
p3414
aS'nugget'
p3415
aS'numb'
p3416
aS'numerouno'
p3417
aS'nun'
p3418
aS'nunc'
p3419
aS'nuov'
p3420
aS'nur'
p3421
aS'nut'
p3422
aS'nuth'
p3423
aS'nx'
p3424
aS'ny'
p3425
aS'nyc'
p3426
aS'nyerr'
p3427
aS'nymus'
p3428
aS'nytim'
p3429
aS'o'
p3430
aVo_o
p3431
aS'oa'
p3432
aS'oaxac'
p3433
aS'oberfl'
p3434
aVobitu
p3435
aVobjet
p3436
aVobnoxy
p3437
aVobsc
p3438
aS'obsolet'
p3439
aS'obsoleto'
p3440
aS'obv'
p3441
aVobvy
p3442
aVoc
p3443
aS'occ'
p3444
aS'occupy'
p3445
aS'occupy_wall_street'
p3446
aS'och'
p3447
aS'oct'
p3448
aS'octob'
p3449
aS'octubr'
p3450
aS'ocur'
p3451
aS'ocurrier'
p3452
aS'ocurrir'
p3453
aVod
p3454
aS'odbc'
p3455
aS'odio'
p3456
aS'ofensivo'
p3457
aS'oferecido'
p3458
aS'offf'
p3459
aS'office2010'
p3460
aS'officieel'
p3461
aVofficiel
p3462
aS'offiziel'
p3463
aS'offlin'
p3464
aS'oficialia'
p3465
aVofmy
p3466
aS'ofrec'
p3467
aS'og'
p3468
aS'ogalinsk'
p3469
aS'oh'
p3470
aS'ohio'
p3471
aS'ohnonotagain'
p3472
aVohshit
p3473
aS'oj'
p3474
aS'ojo'
p3475
aS'ok'
p3476
aS'okay'
p3477
aS'oktob'
p3478
aVoky
p3479
aS'ol'
p3480
aS'old'
p3481
aS'olelady'
p3482
aS'olh'
p3483
aS'olsun'
p3484
aS'olvido'
p3485
aS'om'
p3486
aS'ombestemt'
p3487
aS'omd'
p3488
aVomdraay
p3489
aS'omfg'
p3490
aS'omg'
p3491
aS'omn'
p3492
aS'omnitouch'
p3493
aS'omnomnomnom'
p3494
aS'ond'
p3495
aS'ondernem'
p3496
aS'onderzoek'
p3497
aS'onez'
p3498
aS'onglet'
p3499
aS'ongst'
p3500
aS'onlin'
p3501
aS'onnodig'
p3502
aS'ontem'
p3503
aVonthebigscreen
p3504
aS'onz'
p3505
aS'oo'
p3506
aS'oof'
p3507
aS'ooff'
p3508
aVooh
p3509
aS'ook'
p3510
aS'oomf'
p3511
aS'oooh'
p3512
aS'oooooop'
p3513
aS'oop'
p3514
aS'oor'
p3515
aVop
p3516
aS'opc'
p3517
aS'openlet'
p3518
aS'opensourc'
p3519
aS'opentext'
p3520
aS'opgesl'
p3521
aS'opin'
p3522
aS'oportunidad'
p3523
aS'oportuniodad'
p3524
aVopportun
p3525
aS'opposit'
p3526
aS'opt'
p3527
aVoptim
p3528
aS'orac'
p3529
aS'orang'
p3530
aS'orcer'
p3531
aS'ord'
p3532
aS'ordenad'
p3533
aS'oreeeen'
p3534
aVorg
p3535
aVorigin
p3536
aS'orkut'
p3537
aVory
p3538
aS'os'
p3539
aS'ose'
p3540
aS'osmel'
p3541
aS'osx'
p3542
aS'otr'
p3543
aS'otro'
p3544
aS'ottobr'
p3545
aS'ou'
p3546
aVoua
p3547
aS'ouaaaaaaahhhhh'
p3548
aS'ouch'
p3549
aS'ount'
p3550
aS'outbound'
p3551
aS'outd'
p3552
aVoutfit
p3553
aVoutil
p3554
aS'outlaw'
p3555
aVoutlook
p3556
aS'outsid'
p3557
aS'outt'
p3558
aVoutweigh
p3559
aS'ouvir'
p3560
aVoverbear
p3561
aVovercomply
p3562
aS'overeenkomst'
p3563
aVoverha
p3564
aVoverview
p3565
aVoxfordshir
p3566
aS'oy'
p3567
aS'oyendo'
p3568
aS'p'
p3569
aS'p2'
p3570
aS'pa'
p3571
aS'paar'
p3572
aVpac
p3573
aVpack
p3574
aS'pad'
p3575
aS'paddy'
p3576
aVpag
p3577
aS'pagaliau'
p3578
aS'pagin'
p3579
aS'pai'
p3580
aVpaid
p3581
aS'pain'
p3582
aS'painless'
p3583
aS'paja'
p3584
aS'pajaro'
p3585
aVpakt
p3586
aS'pal'
p3587
aVpalabra
p3588
aS'palestr'
p3589
aS'palm'
p3590
aS'palomita'
p3591
aS'pan'
p3592
aS'panason'
p3593
aVpancr
p3594
aVpand
p3595
aS'panfleto'
p3596
aS'panor'
p3597
aS'panora'
p3598
aS'pant'
p3599
aVpantall
p3600
aS'pantalla'
p3601
aS'pap'
p3602
aS'papegaa'
p3603
aS'paperboy'
p3604
aS'papu'
p3605
aS'par'
p3606
aS'parab'
p3607
aS'parad'
p3608
aS'paranorm'
p3609
aS'parcer'
p3610
aS'parec'
p3611
aS'parecendo'
p3612
aVparecido
p3613
aS'parej'
p3614
aS'pareto'
p3615
aS'parfo'
p3616
aS'park'
p3617
aS'parko'
p3618
aS'parkson'
p3619
aS'parl'
p3620
aS'parta'
p3621
aS'particip'
p3622
aS'particul'
p3623
aS'partido'
p3624
aS'partn'
p3625
aS'partnersummit'
p3626
aS'party'
p3627
aS'pas'
p3628
aS'pasad'
p3629
aS'pasando'
p3630
aS'pasatiempo'
p3631
aS'paso'
p3632
aVpass
p3633
aS'password'
p3634
aS'past'
p3635
aS'pastel'
p3636
aS'pat'
p3637
aS'pathet'
p3638
aS'pato'
p3639
aS'pattern'
p3640
aVpaty
p3641
aS'paul'
p3642
aS'pavil'
p3643
aS'pay'
p3644
aS'paym'
p3645
aS'pc'
p3646
aS'pcworld'
p3647
aVpdf
p3648
aS'pdfs'
p3649
aS'pea'
p3650
aS'peac'
p3651
aS'peanut'
p3652
aS'pear'
p3653
aS'pearson'
p3654
aS'ped'
p3655
aS'pedirl'
p3656
aS'pedr'
p3657
aS'peepz'
p3658
aS'pegarl'
p3659
aS'pego'
p3660
aS'pehch'
p3661
aS'peinlich'
p3662
aS'pek'
p3663
aS'pel'
p3664
aS'pelado'
p3665
aS'pelea'
p3666
aS'pelo'
p3667
aS'pen'
p3668
aVpend
p3669
aS'pendejada'
p3670
aS'pens'
p3671
aS'pensando'
p3672
aS'pensiento'
p3673
aS'penso'
p3674
aS'peopl'
p3675
aVpeor
p3676
aS'perc'
p3677
aS'perceiv'
p3678
aS'perd'
p3679
aS'perdiendo'
p3680
aS'perfect'
p3681
aS'perfil'
p3682
aS'perform'
p3683
aS'pergunt'
p3684
aS'peril'
p3685
aVperiod
p3686
aS'periodismodigit'
p3687
aS'periodist'
p3688
aVperjud
p3689
aS'perk'
p3690
aS'permit'
p3691
aVpero
p3692
aS'perpet'
p3693
aS'perro'
p3694
aS'person'
p3695
aS'persona'
p3696
aVpersonasinvy
p3697
aS'pertenec'
p3698
aS'pes'
p3699
aS'pesso'
p3700
aS'pessoa'
p3701
aVpet
p3702
aS'petit'
p3703
aVpeu
p3704
aS'peut'
p3705
aVpffffff
p3706
aS'pgm'
p3707
aS'phil'
p3708
aS'philip'
p3709
aS'philosoph'
p3710
aVphon
p3711
aS'phonerecord'
p3712
aVphoto
p3713
aS'photograph'
p3714
aS'photosh'
p3715
aVphr
p3716
aS'phuyrg'
p3717
aS'phys'
p3718
aS'pi'
p3719
aS'piac'
p3720
aS'pic'
p3721
aS'pick'
p3722
aS'pict'
p3723
aS'pid'
p3724
aS'pido'
p3725
aVpiec
p3726
aVpikky
p3727
aS'pil'
p3728
aS'pin'
p3729
aS'pinbal'
p3730
aS'pinball_fx_2'
p3731
aVpinch
p3732
aS'ping'
p3733
aS'pink'
p3734
aS'pinpoint'
p3735
aS'pinto'
p3736
aVpioniq
p3737
aS'pir'
p3738
aS'pirata'
p3739
aS'pirater'
p3740
aS'piss'
p3741
aS'pitm'
p3742
aS'pittsburgh'
p3743
aS'pitufo'
p3744
aS'pix'
p3745
aS'pj'
p3746
aS'pjd'
p3747
aS'pks'
p3748
aS'pla'
p3749
aS'plac'
p3750
aVplaintiff
p3751
aS'plan'
p3752
aS'planet'
p3753
aS'plank'
p3754
aS'planov'
p3755
aS'plant'
p3756
aS'plat'
p3757
aS'plataform'
p3758
aVplatform
p3759
aS'platiquenm'
p3760
aS'play'
p3761
aS'playbook'
p3762
aS'playl'
p3763
aS'playst'
p3764
aS'plea'
p3765
aVplot
p3766
aS'pls'
p3767
aS'plu'
p3768
aS'plug'
p3769
aS'plugin'
p3770
aS'plutselig'
p3771
aS'plz'
p3772
aS'po'
p3773
aS'pobr'
p3774
aS'pocesivo'
p3775
aS'pocket'
p3776
aS'pockettouch'
p3777
aS'poco'
p3778
aS'pod'
p3779
aS'podacst'
p3780
aS'podcast'
p3781
aS'podr'
p3782
aS'poh'
p3783
aS'point'
p3784
aVpoir
p3785
aS'pois'
p3786
aS'pok'
p3787
aS'pokerst'
p3788
aS'pol'
p3789
aVpolicy
p3790
aVpolit
p3791
aS'politik'
p3792
aS'pon'
p3793
aS'pondr'
p3794
aS'ponerc'
p3795
aS'ponerm'
p3796
aS'pongo'
p3797
aS'poniendo'
p3798
aVpont
p3799
aS'pool'
p3800
aS'poooh'
p3801
aS'poop'
p3802
aS'poor'
p3803
aS'pop'
p3804
aS'popul'
p3805
aS'popularizo'
p3806
aS'poq'
p3807
aS'por'
p3808
aS'porchist'
p3809
aS'porq'
p3810
aVporqu
p3811
aS'porr'
p3812
aS'port'
p3813
aS'pos'
p3814
aS'posez'
p3815
aS'posit'
p3816
aS'poss'
p3817
aS'possibilit'
p3818
aS'post'
p3819
aS'posto'
p3820
aS'potenz'
p3821
aS'pour'
p3822
aVpourra
p3823
aS'pouvoir'
p3824
aS'povidan'
p3825
aS'povo'
p3826
aS'pow'
p3827
aVpowerlink
p3828
aVpowerpivot
p3829
aVpowerpoint
p3830
aVppershelloap
p3831
aS'ppl'
p3832
aS'ppnat'
p3833
aS'pps'
p3834
aS'pr'
p3835
aS'pra'
p3836
aS'pract'
p3837
aS'pras'
p3838
aVprat
p3839
aS'pratet'
p3840
aS'pray'
p3841
aS'pre'
p3842
aS'precio'
p3843
aS'preciso'
p3844
aS'predict'
p3845
aS'preferenc'
p3846
aVpregn
p3847
aS'pregunt'
p3848
aS'preisstab'
p3849
aS'prem'
p3850
aVprend
p3851
aS'prendido'
p3852
aS'prendio'
p3853
aS'prep'
p3854
aS'prepar'
p3855
aS'pres'
p3856
aS'present'
p3857
aS'presentac'
p3858
aS'presentado'
p3859
aS'presentanc'
p3860
aVpresentaty
p3861
aS'presentaz'
p3862
aS'presento'
p3863
aS'preserv'
p3864
aVpresid
p3865
aS'press'
p3866
aS'pressekonferenz'
p3867
aS'presum'
p3868
aS'pretend'
p3869
aS'pretendo'
p3870
aVpretty
p3871
aS'prev'
p3872
aS'preview'
p3873
aS'previo'
p3874
aS'pric'
p3875
aVpricepoint
p3876
aS'prim'
p3877
aS'primeir'
p3878
aS'primer'
p3879
aS'primero'
p3880
aS'primo'
p3881
aS'prince_156'
p3882
aS'princip'
p3883
aS'prioridad'
p3884
aS'pris'
p3885
aS'pristatyta'
p3886
aS'prisutn'
p3887
aS'priv'
p3888
aVprix
p3889
aS'pro'
p3890
aS'prob'
p3891
aS'probando'
p3892
aS'probl'
p3893
aS'problem'
p3894
aS'problema'
p3895
aS'problemkind'
p3896
aVproc
p3897
aS'process'
p3898
aVprod
p3899
aS'prodmgmt'
p3900
aS'produc'
p3901
aS'producto'
p3902
aVprodukt
p3903
aVprof
p3904
aS'profes'
p3905
aVprofess
p3906
aS'profil'
p3907
aVprofiss
p3908
aS'profit'
p3909
aVprofundo
p3910
aS'progr'
p3911
aS'progress'
p3912
aS'progrm'
p3913
aS'progru'
p3914
aS'project'
p3915
aVprojekt
p3916
aS'prol'
p3917
aVprom
p3918
aS'promo'
p3919
aS'promoallday'
p3920
aS'promot'
p3921
aVpronto
p3922
aS'proof'
p3923
aVprop
p3924
aVpropagand
p3925
aVpropietario
p3926
aS'propos'
p3927
aS'protagonista'
p3928
aS'protect'
p3929
aS'prototipo'
p3930
aS'prototyp'
p3931
aS'proud'
p3932
aVprov
p3933
aS'provid'
p3934
aS'proxim'
p3935
aS'proximo'
p3936
aS'proxy'
p3937
aVproyectad
p3938
aS'proyecto'
p3939
aS'ps'
p3940
aS'ps3'
p3941
aS'psn'
p3942
aS'pss'
p3943
aS'pstd'
p3944
aS'ptm'
p3945
aS'pub'
p3946
aS'publ'
p3947
aS'publaunch'
p3948
aS'publica'
p3949
aS'publiek'
p3950
aS'puch'
p3951
aS'pue'
p3952
aS'pued'
p3953
aS'puedo'
p3954
aS'pul'
p3955
aS'pulgada'
p3956
aS'puls'
p3957
aS'pur'
p3958
aVpurchas
p3959
aS'purpl'
p3960
aVpush
p3961
aS'puss'
p3962
aS'putadr'
p3963
aS'puto'
p3964
aS'pws'
p3965
aS'q'
p3966
aVqa
p3967
aS'qdo'
p3968
aS'qe'
p3969
aS'qeriido'
p3970
aS'qiero'
p3971
aS'qn'
p3972
aS'qpgxle'
p3973
aS'qr'
p3974
aS'qrcode'
p3975
aVqu
p3976
aS'qual'
p3977
aS'qualch'
p3978
aS'qualqu'
p3979
aVqualsias
p3980
aS'quando'
p3981
aVquart
p3982
aS'quas'
p3983
aS'que'
p3984
aS'quebr'
p3985
aS'qued'
p3986
aS'quedado'
p3987
aS'quedo'
p3988
aS'queem'
p3989
aS'quejarm'
p3990
aS'quel'
p3991
aS'quelqu'
p3992
aS'quem'
p3993
aS'quequ'
p3994
aS'quer'
p3995
aS'querid'
p3996
aVquerido
p3997
aS'quero'
p3998
aVquery
p3999
aS'quest'
p4000
aS'queu'
p4001
aVqui
p4002
aS'quick'
p4003
aS'quiebr'
p4004
aS'quiero'
p4005
aS'quiierooo'
p4006
aVquint
p4007
aS'quisier'
p4008
aVquit
p4009
aS'quot'
p4010
aS'r'
p4011
aS'ra'
p4012
aS'rabobank'
p4013
aS'rach'
p4014
aS'rachel'
p4015
aS'racket'
p4016
aVrad
p4017
aS'radio'
p4018
aS'radiolog'
p4019
aS'rain'
p4020
aS'rais'
p4021
aS'ralando'
p4022
aVrandst
p4023
aS'rank'
p4024
aS'rant'
p4025
aVrap
p4026
aS'raroooo'
p4027
aS'rart'
p4028
aS'ratchetsymptom'
p4029
aS'rato'
p4030
aS'rausbr'
p4031
aS'raw'
p4032
aS'rawk'
p4033
aVrayo
p4034
aS'raz'
p4035
aS'razanumerouno'
p4036
aS'razr'
p4037
aS'rcve'
p4038
aS'rde'
p4039
aS'rdfa'
p4040
aS'reach'
p4041
aS'react'
p4042
aS'read'
p4043
aS'readingl'
p4044
aS'ready'
p4045
aVreal
p4046
aS'realest'
p4047
aS'realtim'
p4048
aVreappear
p4049
aS'reason'
p4050
aS'reboot'
p4051
aS'rebuild'
p4052
aVrebut
p4053
aVrec
p4054
aVrecap
p4055
aS'receiv'
p4056
aVrecess
p4057
aS'recherch'
p4058
aS'recht'
p4059
aS'reckless'
p4060
aS'recognit'
p4061
aS'recomiendeno'
p4062
aS'reconcil'
p4063
aVreconnaiss
p4064
aS'reconocimiento'
p4065
aVrecord
p4066
aS'recordarm'
p4067
aS'recov'
p4068
aS'recruit'
p4069
aS'recuerd'
p4070
aS'recup'
p4071
aS'red'
p4072
aS'redeem'
p4073
aVredesign
p4074
aS'redessoc'
p4075
aVredh
p4076
aS'redimension'
p4077
aS'redirect'
p4078
aS'refer'
p4079
aVreflect
p4080
aS'reflex'
p4081
aS'reform'
p4082
aS'reg'
p4083
aS'regalado'
p4084
aS'regard'
p4085
aS'regardless'
p4086
aVregio
p4087
aS'registrado'
p4088
aS'regreso'
p4089
aS'regul'
p4090
aS'reiniciando'
p4091
aVrel
p4092
aS'relax'
p4093
aS'releas'
p4094
aS'releasepartyguid'
p4095
aS'relev'
p4096
aVrely
p4097
aS'rem'
p4098
aS'remain'
p4099
aS'remak'
p4100
aS'rememb'
p4101
aS'remind'
p4102
aS'remot'
p4103
aS'remov'
p4104
aVremport
p4105
aVremu
p4106
aS'ren'
p4107
aS'rend'
p4108
aS'renew'
p4109
aS'renov'
p4110
aS'rep'
p4111
aS'repair'
p4112
aVreplac
p4113
aS'repletoooo'
p4114
aS'reply'
p4115
aVreport
p4116
aS'repost'
p4117
aS'reppin'
p4118
aS'reprisk'
p4119
aS'republ'
p4120
aVrequest
p4121
aS'requir'
p4122
aVres
p4123
aVresearch
p4124
aS'resel'
p4125
aS'resentid'
p4126
aS'reserv'
p4127
aS'resetearlo'
p4128
aS'reshap'
p4129
aS'resl'
p4130
aS'resolv'
p4131
aS'reson'
p4132
aS'resourc'
p4133
aS'resp'
p4134
aS'respect'
p4135
aVrespecto
p4136
aS'respekt'
p4137
aS'respond'
p4138
aVrespons
p4139
aVrespuesta
p4140
aS'rest'
p4141
aS'restrict'
p4142
aS'result'
p4143
aS'resultado'
p4144
aS'resum'
p4145
aS'retail'
p4146
aS'retard'
p4147
aS'retin'
p4148
aVretir
p4149
aS'retiro'
p4150
aS'retriev'
p4151
aVreturn
p4152
aVretweet
p4153
aS'reut'
p4154
aS'rev'
p4155
aS'revel'
p4156
aS'revelou'
p4157
aVrevenu
p4158
aVrevers
p4159
aS'revert'
p4160
aS'review'
p4161
aS'revior'
p4162
aVrevolv
p4163
aS'revp'
p4164
aS'revu'
p4165
aVreward
p4166
aS'rewardhub'
p4167
aVrewind
p4168
aS'rhce'
p4169
aS'ria'
p4170
aS'ric'
p4171
aS'ricerc'
p4172
aS'rich'
p4173
aS'rid'
p4174
aVrient
p4175
aS'right'
p4176
aS'rilanc'
p4177
aS'rim'
p4178
aS'ring'
p4179
aVriod
p4180
aS'rip'
p4181
aS'ripstev'
p4182
aS'ris'
p4183
aS'rit'
p4184
aVritenow
p4185
aS'riv'
p4186
aS'rkiy'
p4187
aS'rly'
p4188
aS'rm'
p4189
aS'rmet'
p4190
aS'road'
p4191
aS'roadmap'
p4192
aS'roast'
p4193
aS'rob'
p4194
aVrobot
p4195
aS'roboto'
p4196
aS'rock'
p4197
aS'rohit'
p4198
aS'roi'
p4199
aVrol
p4200
aVrom
p4201
aS'romp'
p4202
aS'ron'
p4203
aS'rond'
p4204
aS'room'
p4205
aVroot
p4206
aS'ros'
p4207
aS'roslyn'
p4208
aS'rotfl'
p4209
aS'rotit'
p4210
aS'rough'
p4211
aVround
p4212
aS'roupa'
p4213
aS'row'
p4214
aS'rpg'
p4215
aS'rrhh'
p4216
aS'rrp'
p4217
aS'rs'
p4218
aS'rsna'
p4219
aS'rsrsr'
p4220
aS'rss'
p4221
aS'rt'
p4222
aS'rts'
p4223
aS'ru'
p4224
aVrubik
p4225
aS'rubin'
p4226
aS'rubr'
p4227
aS'ruin'
p4228
aS'rul'
p4229
aS'rum'
p4230
aS'run'
p4231
aS'rusku'
p4232
aS'russ'
p4233
aS'rusz'
p4234
aVrva
p4235
aS'rve'
p4236
aS'rww'
p4237
aS's'
p4238
aS's2'
p4239
aS'sa'
p4240
aS'saaindo'
p4241
aS'saal'
p4242
aS'sab'
p4243
aS'sacad'
p4244
aS'sacarlo'
p4245
aVsacarm
p4246
aS'sachbearbeit'
p4247
aS'sad'
p4248
aVsadmac
p4249
aS'sadr'
p4250
aS'saf'
p4251
aS'safar'
p4252
aS'sag'
p4253
aS'sagr'
p4254
aVsai
p4255
aS'said'
p4256
aS'saindo'
p4257
aS'saint'
p4258
aS'sair'
p4259
aVsak
p4260
aS'sal'
p4261
aS'salesforc'
p4262
aS'salir'
p4263
aS'salmonell'
p4264
aVsalud
p4265
aS'saludo'
p4266
aS'saludoss'
p4267
aS'salut'
p4268
aS'salv'
p4269
aVsan
p4270
aS'sandr'
p4271
aVsandwich
p4272
aS'sandwicho'
p4273
aS'sansung'
p4274
aS'sant'
p4275
aS'santo'
p4276
aVsantor
p4277
aS'sanwikiped'
p4278
aVsap
p4279
aS'sapgateway'
p4280
aS'saptech'
p4281
aS'sarcasm'
p4282
aS'sarcasmo'
p4283
aS'sat'
p4284
aS'saturando'
p4285
aS'saturdaycut'
p4286
aS'saudad'
p4287
aS'sausagefest'
p4288
aVsav
p4289
aVsavoir
p4290
aS'saw'
p4291
aS'say'
p4292
aS'sby'
p4293
aS'sc'
p4294
aS'scal'
p4295
aS'schaub'
p4296
aS'schedule'
p4297
aS'schen'
p4298
aS'schiphol'
p4299
aS'schock'
p4300
aS'schon'
p4301
aVschool
p4302
aS'schouder'
p4303
aVsci
p4304
aS'scimm'
p4305
aS'scom'
p4306
aS'scond'
p4307
aS'scor'
p4308
aS'scrapple'
p4309
aVscre
p4310
aS'screen'
p4311
aS'screened'
p4312
aS'screens'
p4313
aS'screenshot'
p4314
aVscreenshots
p4315
aVscrew
p4316
aS'screwed'
p4317
aS'screws'
p4318
aS'scroll'
p4319
aS'scrolling'
p4320
aVscvmm
p4321
aS'sdk'
p4322
aS'se'
p4323
aS'sea'
p4324
aS'seahawksw'
p4325
aVseal
p4326
aS'sean'
p4327
aS'searay'
p4328
aS'search'
p4329
aS'searchengin'
p4330
aS'season'
p4331
aVsec
p4332
aS'sec1802'
p4333
aS'second'
p4334
aS'secreto'
p4335
aS'secretoo'
p4336
aS'sect'
p4337
aS'sed'
p4338
aS'seek'
p4339
aS'seen'
p4340
aS'seg'
p4341
aS'segu'
p4342
aS'seguid'
p4343
aS'seguir'
p4344
aS'segun'
p4345
aS'segund'
p4346
aS'seguridadparatodo'
p4347
aS'sehr'
p4348
aS'seit'
p4349
aS'sejahter'
p4350
aS'sel'
p4351
aS'selang'
p4352
aVselb
p4353
aS'selecto'
p4354
aS'selekt'
p4355
aS'seless'
p4356
aS'self'
p4357
aVsem
p4358
aS'seman'
p4359
aVsembl
p4360
aVsemes
p4361
aVsen
p4362
aS'send'
p4363
aS'senew'
p4364
aS'sens'
p4365
aS'sent'
p4366
aS'sentimiento'
p4367
aS'sentindo'
p4368
aVseny
p4369
aS'seo'
p4370
aS'seotip'
p4371
aS'septemb'
p4372
aVsequ
p4373
aS'ser'
p4374
aS'sergey'
p4375
aVserp
p4376
aS'serv'
p4377
aS'serveru'
p4378
aS'servicepack'
p4379
aS'servicio'
p4380
aS'servir'
p4381
aS'servizio'
p4382
aS'sesestreet'
p4383
aVsess
p4384
aS'session'
p4385
aS'set'
p4386
aVsetelah
p4387
aS'settl'
p4388
aS'setup'
p4389
aS'sex'
p4390
aS'sf'
p4391
aS'sfid'
p4392
aS'sh'
p4393
aS'shad'
p4394
aS'shair'
p4395
aS'shangha'
p4396
aS'shar'
p4397
aS'sharepoint'
p4398
aVsheet
p4399
aS'shift'
p4400
aS'ship'
p4401
aS'shirt'
p4402
aS'shit'
p4403
aVshld
p4404
aS'shlessselfpromotion'
p4405
aS'shop'
p4406
aS'shor'
p4407
aVshort
p4408
aS'shot'
p4409
aS'shout'
p4410
aS'shoutout'
p4411
aVshrewd
p4412
aS'shuffl'
p4413
aS'shut'
p4414
aS'si'
p4415
aS'siapk'
p4416
aS'sic'
p4417
aS'sich'
p4418
aS'sick'
p4419
aS'sido'
p4420
aVsie
p4421
aS'sieh'
p4422
aS'siempr'
p4423
aS'siento'
p4424
aS'sig'
p4425
aS'siglo'
p4426
aS'sign'
p4427
aVsignup
p4428
aVsigo
p4429
aVsigsourc
p4430
aS'sigu'
p4431
aS'siguemeytesigo'
p4432
aS'sii'
p4433
aS'sikkerhet'
p4434
aS'sil'
p4435
aS'silicon'
p4436
aS'silv'
p4437
aS'simil'
p4438
aVsimpl
p4439
aS'simpleth'
p4440
aS'simply'
p4441
aS'sin'
p4442
aS'sincer'
p4443
aS'sincroniz'
p4444
aS'sincronizac'
p4445
aVsind
p4446
aS'sing'
p4447
aS'singap'
p4448
aS'singl'
p4449
aS'sink'
p4450
aS'sio'
p4451
aS'sipcom'
p4452
aS'sir'
p4453
aS'siriwho'
p4454
aS'sirv'
p4455
aS'sis'
p4456
aS'sist'
p4457
aS'sistem'
p4458
aS'sit'
p4459
aS'sitio'
p4460
aS'situ'
p4461
aS'siz'
p4462
aS'sk'
p4463
aS'ska'
p4464
aS'skil'
p4465
aS'skittl'
p4466
aS'skullgang'
p4467
aS'skyp'
p4468
aS'sl'
p4469
aVslack
p4470
aS'slap'
p4471
aS'slappy'
p4472
aVslash
p4473
aS'sledgehm'
p4474
aS'sleeep'
p4475
aS'sleep'
p4476
aS'sleeptight'
p4477
aS'slegit'
p4478
aS'slew'
p4479
aS'slight'
p4480
aS'slog'
p4481
aVsloppy
p4482
aS'slow'
p4483
aS'slp'
p4484
aS'sls'
p4485
aS'sm'
p4486
aS'smal'
p4487
aS'smallb'
p4488
aS'smart'
p4489
aVsmarterphon
p4490
aS'smartest'
p4491
aS'smartphon'
p4492
aS'smash'
p4493
aS'smau'
p4494
aS'smb'
p4495
aS'smel'
p4496
aS'smh'
p4497
aS'smil'
p4498
aS'smm'
p4499
aVsmoo
p4500
aS'sms'
p4501
aVsn
p4502
aS'snapt'
p4503
aVsnaptu
p4504
aS'snatch'
p4505
aS'sneaky'
p4506
aVsnel
p4507
aVsnippet
p4508
aVsnom
p4509
aVsoa
p4510
aS'soaddict'
p4511
aS'soak'
p4512
aS'sobr'
p4513
aS'sobrevivir'
p4514
aS'soc'
p4515
aS'socapac11'
p4516
aS'socialmed'
p4517
aS'socialnetwork'
p4518
aS'socialsharepr'
p4519
aS'socio'
p4520
aVsocy
p4521
aVsoez
p4522
aS'sofort'
p4523
aS'soft'
p4524
aS'softlin'
p4525
aS'softw'
p4526
aS'softwarelibr'
p4527
aS'softwareverteilung'
p4528
aS'soget'
p4529
aVsoit
p4530
aS'sol'
p4531
aVsolco
p4532
aS'sold'
p4533
aS'solo'
p4534
aS'solu'
p4535
aS'soluc'
p4536
aS'solut'
p4537
aS'solv'
p4538
aVsome1
p4539
aS'somebody'
p4540
aS'somo'
p4541
aS'son'
p4542
aS'song'
p4543
aS'sono'
p4544
aVsont
p4545
aS'sony'
p4546
aS'soon'
p4547
aS'sooo'
p4548
aS'soooo'
p4549
aS'soooooo'
p4550
aS'sop'
p4551
aS'soph'
p4552
aS'soport'
p4553
aVsorprend
p4554
aS'sorpres'
p4555
aS'sorr'
p4556
aS'sorrid'
p4557
aS'sorry'
p4558
aS'sorryfollow'
p4559
aS'sort'
p4560
aVsorud
p4561
aVsos
p4562
aS'sou'
p4563
aS'sougo'
p4564
aS'sougofollow'
p4565
aS'sound'
p4566
aS'sourc'
p4567
aS'sourir'
p4568
aS'southern'
p4569
aS'soy'
p4570
aVsp
p4571
aVspa
p4572
aVspac
p4573
aS'spain'
p4574
aS'span'
p4575
aVspar
p4576
aS'spat'
p4577
aS'spd'
p4578
aS'speak'
p4579
aS'spec'
p4580
aS'spect'
p4581
aS'spectaculair'
p4582
aS'spectechul'
p4583
aS'speech'
p4584
aS'speecht'
p4585
aS'spel'
p4586
aS'spend'
p4587
aS'spent'
p4588
aS'spez'
p4589
aVspiel
p4590
aS'spigot'
p4591
aVspin
p4592
aS'spir'
p4593
aS'spmy'
p4594
aS'spoil'
p4595
aS'spok'
p4596
aS'spont'
p4597
aS'spookygoogl'
p4598
aVsport
p4599
aS'spot'
p4600
aVspring
p4601
aVsprint
p4602
aS'spy'
p4603
aS'spyw'
p4604
aS'sql'
p4605
aVsqlpass
p4606
aS'sqlserver'
p4607
aS'squ'
p4608
aS'squeda'
p4609
aS'srs'
p4610
aS'sselt'
p4611
aS'ssig'
p4612
aVssl
p4613
aVssumg
p4614
aS'ssun'
p4615
aS'ssung'
p4616
aS'ssungnex'
p4617
aS'st'
p4618
aS'sta'
p4619
aVstabiel
p4620
aS'stabl'
p4621
aS'stack'
p4622
aS'stadt'
p4623
aVstaff
p4624
aS'stag'
p4625
aVstalk
p4626
aS'stalkerismo'
p4627
aS'stand'
p4628
aVstandard
p4629
aVstap
p4630
aS'star'
p4631
aVstarbuck
p4632
aVstart
p4633
aS'startpack'
p4634
aVstartup
p4635
aS'stat'
p4636
aVstatist
p4637
aS'status'
p4638
aS'statuss'
p4639
aS'stavaz'
p4640
aS'stay'
p4641
aS'ste'
p4642
aS'stee'
p4643
aVsteff
p4644
aS'steht'
p4645
aS'stel'
p4646
aS'stellt'
p4647
aS'step'
p4648
aVsterd
p4649
aS'sterodu'
p4650
aS'sterreich'
p4651
aS'stev'
p4652
aVsteve_b
p4653
aS'steve_ballmer'
p4654
aS'steveballm'
p4655
aVsteveballmet
p4656
aS'stevejob'
p4657
aS'stevejobsday'
p4658
aVstewart
p4659
aS'stica'
p4660
aS'stick'
p4661
aS'sticky'
p4662
aS'stilllearn'
p4663
aS'stimuler'
p4664
aS'sto'
p4665
aS'stock'
p4666
aVstop
p4667
aVstor
p4668
aS'story'
p4669
aS'straight'
p4670
aS'straits'
p4671
aS'strange'
p4672
aVstranger
p4673
aS'strangest'
p4674
aVstrat
p4675
aS'strategie'
p4676
aVstrategy
p4677
aVstravi
p4678
aVstravinsky
p4679
aS'stre'
p4680
aS'street'
p4681
aVstrengthen
p4682
aVstres
p4683
aS'stressed'
p4684
aS'strong'
p4685
aS'stronger'
p4686
aS'strongly'
p4687
aS'structure'
p4688
aS'struggling'
p4689
aS'stuck'
p4690
aS'stud'
p4691
aVstudio
p4692
aVstudy
p4693
aVstudyingwhilstmot
p4694
aS'stuff'
p4695
aS'stupid'
p4696
aS'styl'
p4697
aS'su'
p4698
aS'sua'
p4699
aS'suav'
p4700
aS'subatomica'
p4701
aVsubjet
p4702
aS'submit'
p4703
aVsubscrib
p4704
aVsubstitut
p4705
aVsuccess
p4706
aS'sucesso'
p4707
aVsuchpartn
p4708
aS'suck'
p4709
aS'sud'
p4710
aS'sudr'
p4711
aS'sue'
p4712
aVsuff
p4713
aS'sufrir'
p4714
aS'sug'
p4715
aS'suggest'
p4716
aVsuing
p4717
aS'suit'
p4718
aVsuiv
p4719
aVsuivez
p4720
aS'sukc'
p4721
aVsul
p4722
aS'sum'
p4723
aS'sumandoo'
p4724
aS'sumbo'
p4725
aS'sumbody'
p4726
aS'sumiu'
p4727
aS'sumiuuuuuuuuuuuuuuu'
p4728
aS'summit'
p4729
aS'sun'
p4730
aS'suna'
p4731
aVsunday
p4732
aS'sunt'
p4733
aS'sup'
p4734
aS'superbo'
p4735
aVsuperficy
p4736
aVsupery
p4737
aS'support'
p4738
aS'supportny'
p4739
aS'suppos'
p4740
aS'supppp'
p4741
aS'supprim'
p4742
aVsuprem
p4743
aS'sur'
p4744
aS'surfac'
p4745
aS'surfact'
p4746
aS'surpr'
p4747
aS'surve'
p4748
aS'sus'
p4749
aS'suscripc'
p4750
aS'sush'
p4751
aS'sux'
p4752
aS'sverig'
p4753
aS'swa'
p4754
aVswallow
p4755
aVswap
p4756
aS'swear'
p4757
aS'sweatshop'
p4758
aVsweet
p4759
aS'swip'
p4760
aS'swirlz'
p4761
aS'switch'
p4762
aVswpats
p4763
aS'swyp'
p4764
aS'sydney'
p4765
aVsymb
p4766
aS'symp'
p4767
aVsympathisch
p4768
aS'synch'
p4769
aS'synchron'
p4770
aS'syncron'
p4771
aVsynt
p4772
aVsys
p4773
aS'syst'
p4774
aVsysteembeheerd
p4775
aS'systemc'
p4776
aS'szans'
p4777
aS't'
p4778
aVt_t
p4779
aS'ta'
p4780
aS'taa'
p4781
aS'tab'
p4782
aS'tabl'
p4783
aS'tablet'
p4784
aS'tacom'
p4785
aVtactil
p4786
aS'tademod'
p4787
aS'tag'
p4788
aS'tagoch'
p4789
aS'tagu'
p4790
aS'tah'
p4791
aS'takeov'
p4792
aVtal
p4793
aS'talk'
p4794
aVtallgrass
p4795
aS'tan'
p4796
aS'tango'
p4797
aS'tant'
p4798
aVtanta
p4799
aS'tanto'
p4800
aS'tao'
p4801
aS'tap'
p4802
aS'tard'
p4803
aS'tare'
p4804
aS'tarea'
p4805
aS'target'
p4806
aS'tarjet'
p4807
aS'task'
p4808
aS'tast'
p4809
aS'tasty'
p4810
aS'tava'
p4811
aS'tax'
p4812
aS'tb'
p4813
aS'tbi'
p4814
aS'tbon'
p4815
aS'tcn'
p4816
aS'tcot'
p4817
aS'te'
p4818
aS'tear'
p4819
aS'teas'
p4820
aS'tech'
p4821
aS'tech_ar'
p4822
aS'techedafric'
p4823
aVtechgadget
p4824
aS'techietroubl'
p4825
aS'techn'
p4826
aS'technet'
p4827
aVtechnew
p4828
aVtechniek
p4829
aVtechnisch
p4830
aS'techno'
p4831
aS'technolog'
p4832
aS'techsupport'
p4833
aS'techw'
p4834
aVtechy
p4835
aVteclado
p4836
aS'tecn'
p4837
aS'tecnich'
p4838
aS'tecnol'
p4839
aS'tecnolog'
p4840
aS'tecnologia'
p4841
aVtee
p4842
aS'teeh'
p4843
aS'teenpatt'
p4844
aS'tefollow'
p4845
aS'tefollowback'
p4846
aS'tegnolog'
p4847
aS'tegooglenex'
p4848
aS'teiphon'
p4849
aS'teknolojisin'
p4850
aVtekstaanvul
p4851
aS'tel'
p4852
aS'telefono'
p4853
aS'telefoon'
p4854
aS'telegraph'
p4855
aS'tellm'
p4856
aS'telnum'
p4857
aS'tem'
p4858
aS'tema'
p4859
aS'temasek'
p4860
aS'temp'
p4861
aS'tempo'
p4862
aS'tend'
p4863
aS'tendenc'
p4864
aS'tendr'
p4865
aS'tendremo'
p4866
aS'tendu'
p4867
aS'tenemo'
p4868
aS'teng'
p4869
aS'tengo'
p4870
aS'tenho'
p4871
aS'teni'
p4872
aS'tenia'
p4873
aS'tenido'
p4874
aS'tent'
p4875
aS'teo'
p4876
aS'teomit'
p4877
aVter
p4878
aS'terceiro'
p4879
aS'term'
p4880
aS'termin'
p4881
aS'termino'
p4882
aS'ternurita'
p4883
aS'terr'
p4884
aS'tersangk'
p4885
aVterug
p4886
aS'tes'
p4887
aS'test'
p4888
aS'testific'
p4889
aS'testimon'
p4890
aS'teu'
p4891
aS'texa'
p4892
aVtext
p4893
aS'tfb'
p4894
aS'tfs'
p4895
aS'tha'
p4896
aS'thailand'
p4897
aS'thank'
p4898
aS'thanksfornoth'
p4899
aS'thanksgod'
p4900
aS'thanx'
p4901
aS'thatsdisrespect'
p4902
aVtheft
p4903
aS'thelegionofthefal'
p4904
aS'theoldway'
p4905
aS'theoret'
p4906
aVthetechcheck
p4907
aVthiel
p4908
aS'thigh'
p4909
aS'thing'
p4910
aS'thingswealllov'
p4911
aS'think'
p4912
aS'thirsty'
p4913
aS'this'
p4914
aS'thnx'
p4915
aS'tho'
p4916
aVthoma
p4917
aS'thorn'
p4918
aS'thought'
p4919
aVthreads
p4920
aS'threat'
p4921
aS'threaten'
p4922
aS'threw'
p4923
aS'throw'
p4924
aS'thug'
p4925
aVthunderbird
p4926
aS'thunderbolt'
p4927
aS'thursday'
p4928
aS'thx'
p4929
aS'thxx'
p4930
aS'thyself'
p4931
aS'ti'
p4932
aS'tic'
p4933
aS'tiempo'
p4934
aS'tien'
p4935
aS'tiend'
p4936
aS'tient'
p4937
aS'tierno'
p4938
aS'tig'
p4939
aS'tight'
p4940
aS'tigt'
p4941
aS'til'
p4942
aVtim
p4943
aS'timecaps'
p4944
aS'timelin'
p4945
aS'timewarnerc'
p4946
aS'tin'
p4947
aS'tint'
p4948
aS'tip'
p4949
aS'tir'
p4950
aS'tit'
p4951
aVtitl
p4952
aS'tittel'
p4953
aS'tja'
p4954
aS'tlow'
p4955
aS'tmb'
p4956
aS'tmw'
p4957
aS'tnjuter'
p4958
aS'tobillo'
p4959
aS'toch'
p4960
aVtocomply
p4961
aS'tod'
p4962
aS'toda'
p4963
aS'today'
p4964
aS'todo'
p4965
aS'tok'
p4966
aS'told'
p4967
aVtom
p4968
aS'tomorrow'
p4969
aVton
p4970
aS'tonight'
p4971
aVtont
p4972
aS'toocool'
p4973
aS'took'
p4974
aS'tool'
p4975
aS'toolb'
p4976
aS'tosleepigo'
p4977
aVtoss
p4978
aS'tot'
p4979
aS'tou'
p4980
aS'touch'
p4981
aS'touchf'
p4982
aS'touchm'
p4983
aVtouchpoint
p4984
aS'touchscreen'
p4985
aS'tough'
p4986
aS'toul'
p4987
aVtour
p4988
aS'tourn'
p4989
aS'tout'
p4990
aVtowh
p4991
aS'town'
p4992
aS'toy'
p4993
aS'tpa'
p4994
aVtr
p4995
aS'tra'
p4996
aS'trabado'
p4997
aS'trabaj'
p4998
aS'trabalho'
p4999
aVtrabas
p5000
aVtrack
p5001
aVtrad
p5002
aVtradepromot
p5003
aVtraducido
p5004
aS'traff'
p5005
aS'train'
p5006
aS'traject'
p5007
aS'tranquil'
p5008
aS'transcribirlo'
p5009
aS'transform'
p5010
aS'transic'
p5011
aS'transit'
p5012
aS'transl'
p5013
aS'transmit'
p5014
aS'trapt'
p5015
aVtras
p5016
aS'trash'
p5017
aVtrashy
p5018
aS'trav'
p5019
aVtravel
p5020
aS'tre'
p5021
aS'trend'
p5022
aS'treuhand'
p5023
aVtri
p5024
aS'tribun'
p5025
aS'tribut'
p5026
aS'trick'
p5027
aVtrip
p5028
aVtripl
p5029
aS'tripletown'
p5030
aS'trist'
p5031
aS'triv'
p5032
aVtro
p5033
aVtroc
p5034
aS'tron'
p5035
aVtronm
p5036
aS'trot'
p5037
aS'troubl'
p5038
aS'troublemak'
p5039
aVtrount
p5040
aS'trovarc'
p5041
aVtroy
p5042
aS'tru'
p5043
aS'truc'
p5044
aS'truest'
p5045
aS'try'
p5046
aS'tryn'
p5047
aS'tshirts'
p5048
aS'tsk'
p5049
aS'tt'
p5050
aS'ttem'
p5051
aS'ttinh'
p5052
aS'tu'
p5053
aS'tub'
p5054
aS'tudo'
p5055
aS'tuesday'
p5056
aS'tumbl'
p5057
aVtumblr
p5058
aS'tun'
p5059
aS'tunef'
p5060
aVtunisienew
p5061
aVtunisy
p5062
aS'turismo'
p5063
aS'turn'
p5064
aS'tus'
p5065
aS'tuss'
p5066
aS'tuu'
p5067
aS'tuviera'
p5068
aS'tv'
p5069
aS'tvbox'
p5070
aS'tweep'
p5071
aS'tweet'
p5072
aS'tweetcast'
p5073
aS'tweetdeck'
p5074
aS'tweetoff'
p5075
aS'tweezard'
p5076
aS'twhistler'
p5077
aS'twic'
p5078
aS'twiceiphone4sales'
p5079
aS'twidroyd'
p5080
aS'twit'
p5081
aS'twit2alsh'
p5082
aS'twitom'
p5083
aS'twitpeep'
p5084
aS'twitte'
p5085
aS'twitterap'
p5086
aS'twitterem'
p5087
aS'twittern'
p5088
aS'twittero'
p5089
aS'twitteroff'
p5090
aVtwitterrooky
p5091
aS'twittersw'
p5092
aS'twittertim'
p5093
aS'twittertip'
p5094
aVtwittom
p5095
aS'twoj'
p5096
aS'txts'
p5097
aS'ty'
p5098
aS'tyfusverspreid'
p5099
aS'tym'
p5100
aVtyp
p5101
aS'typebuild'
p5102
aS'tzenswert'
p5103
aS'u'
p5104
aS'ub'
p5105
aS'uberso'
p5106
aS'ubersoc'
p5107
aS'ubuntu'
p5108
aVuc
p5109
aS'ucexpo'
p5110
aS'uch'
p5111
aS'ucom'
p5112
aVuef
p5113
aS'uff'
p5114
aS'ufff'
p5115
aS'ug'
p5116
aS'ugh'
p5117
aS'ughh'
p5118
aS'ugurlu'
p5119
aS'uh'
p5120
aS'uhmw'
p5121
aS'uhr'
p5122
aVui
p5123
aS'uick'
p5124
aS'uiii'
p5125
aS'uit'
p5126
aS'uitbouw'
p5127
aS'uitdagend'
p5128
aVuitgehaald
p5129
aS'uk'
p5130
aVulforthewin
p5131
aVultery
p5132
aVultim
p5133
aS'ultimo'
p5134
aVum
p5135
aS'umbrella'
p5136
aS'umd'
p5137
aS'umelink'
p5138
aVumsatzgaranty
p5139
aS'unauth'
p5140
aS'unbeliev'
p5141
aS'unblock'
p5142
aS'unborn'
p5143
aS'uncateg'
p5144
aS'undecid'
p5145
aVunder
p5146
aS'undergo'
p5147
aS'underplay'
p5148
aS'understand'
p5149
aS'underwhelm'
p5150
aS'undo'
p5151
aS'undoubt'
p5152
aS'unerwartetem'
p5153
aS'unexpect'
p5154
aS'unfair'
p5155
aS'unfollow'
p5156
aVunfortun
p5157
aS'unhappy'
p5158
aS'unido'
p5159
aS'unit'
p5160
aS'univers'
p5161
aS'unknown'
p5162
aS'unless'
p5163
aS'unlik'
p5164
aS'unlock'
p5165
aS'uno'
p5166
aS'unproduc'
p5167
aS'unt'
p5168
aS'unterst'
p5169
aS'unveil'
p5170
aS'unwrap'
p5171
aS'upcom'
p5172
aS'upd'
p5173
aS'upgrad'
p5174
aS'uphil'
p5175
aS'upload'
p5176
aVupset
p5177
aS'upsidedown'
p5178
aS'ur'
p5179
aS'url'
p5180
aVurwelcom
p5181
aS'usabilidad'
p5182
aS'usag'
p5183
aS'usando'
p5184
aVusar
p5185
aS'usarlo'
p5186
aS'usav'
p5187
aS'useless'
p5188
aS'usny'
p5189
aS'usoandroid'
p5190
aS'ust'
p5191
aVusuario
p5192
aS'ut'
p5193
aS'util'
p5194
aS'utiliz'
p5195
aS'utiliza'
p5196
aS'utilizado'
p5197
aVux
p5198
aS'uz'
p5199
aS'v'
p5200
aS'va'
p5201
aS'vac'
p5202
aS'vagin'
p5203
aS'vai'
p5204
aS'val'
p5205
aS'valeloka'
p5206
aS'valid'
p5207
aS'valley'
p5208
aS'valorad'
p5209
aS'valu'
p5210
aS'van'
p5211
aS'vancouv'
p5212
aVvanda
p5213
aS'vanmid'
p5214
aVvar
p5215
aS'varf'
p5216
aS'vario'
p5217
aS'varon'
p5218
aVvary
p5219
aS'vast'
p5220
aS'vat'
p5221
aVvay
p5222
aS'vc'
p5223
aS've'
p5224
aS'vea'
p5225
aS'vean'
p5226
aS'vec'
p5227
aVveel
p5228
aS'vehic'
p5229
aS'vel'
p5230
aS'velho'
p5231
aS'velop'
p5232
aS'vemo'
p5233
aS'vend'
p5234
aS'vendido'
p5235
aS'vendroid'
p5236
aS'venit'
p5237
aS'vent'
p5238
aS'venta'
p5239
aS'veo'
p5240
aS'ver'
p5241
aVverb
p5242
aS'verbessern'
p5243
aS'verd'
p5244
aS'veremo'
p5245
aS'verf'
p5246
aVvergrootgla
p5247
aS'verha'
p5248
aVverizon
p5249
aS'verkocht'
p5250
aS'verkoop'
p5251
aS'verl'
p5252
aS'vernieuwend'
p5253
aS'verschl'
p5254
aS'versjon'
p5255
aVvert
p5256
aS'verwachtingovertreff'
p5257
aS'verwaltung'
p5258
aS'verwandelt'
p5259
aS'verzoek'
p5260
aS'vez'
p5261
aS'vfacebook'
p5262
aVvi
p5263
aS'vibr'
p5264
aS'vibro'
p5265
aS'vic'
p5266
aS'viciad'
p5267
aS'viciado'
p5268
aVvicio
p5269
aS'vicioooooo'
p5270
aS'victim'
p5271
aS'vid'
p5272
aS'video'
p5273
aS'videollad'
p5274
aS'vidio'
p5275
aS'vie'
p5276
aS'viel'
p5277
aS'vien'
p5278
aS'vieron'
p5279
aVview
p5280
aS'vijinit'
p5281
aS'vil'
p5282
aVvint
p5283
aVviol
p5284
aS'vip'
p5285
aVvir
p5286
aVvirt
p5287
aS'virtualiz'
p5288
aS'virtualsystem'
p5289
aVvis
p5290
aS'visigo'
p5291
aS'visit'
p5292
aS'vistazo'
p5293
aS'visto'
p5294
aS'visualstudio'
p5295
aS'vit'
p5296
aVvittor
p5297
aS'viu'
p5298
aS'viv'
p5299
aS'vivablackberry'
p5300
aS'vivido'
p5301
aS'vivir'
p5302
aS'vlieg'
p5303
aVvlingo
p5304
aS'vm'
p5305
aS'vmi'
p5306
aVvms
p5307
aS'vmware'
p5308
aVvmworld
p5309
aS'vmworld2011'
p5310
aS'vo'
p5311
aVvoc
p5312
aS'vod'
p5313
aS'voglio'
p5314
aS'voi'
p5315
aS'voic'
p5316
aS'voicecontrol'
p5317
aS'voicemail'
p5318
aS'voil'
p5319
aVvoip
p5320
aS'voir'
p5321
aVvolg
p5322
aVvolgend
p5323
aS'volt'
p5324
aS'voltoo'
p5325
aS'volum'
p5326
aS'volv'
p5327
aS'volviendos'
p5328
aS'volviiendoo'
p5329
aS'vom'
p5330
aS'von'
p5331
aS'voo'
p5332
aS'voor'
p5333
aS'vooz'
p5334
aS'vor'
p5335
aS'vorbereitet'
p5336
aS'vorgestellt'
p5337
aS'vorstellung'
p5338
aVvort
p5339
aS'vorteil'
p5340
aS'vos'
p5341
aS'voss'
p5342
aS'vot'
p5343
aVvou
p5344
aS'vouch'
p5345
aS'voulez'
p5346
aS'voy'
p5347
aS'voz'
p5348
aS'vra'
p5349
aS'vraagt'
p5350
aVvrid
p5351
aS'vs'
p5352
aS'vslive'
p5353
aS'vuelt'
p5354
aVvuo
p5355
aS'vv'
p5356
aS'w'
p5357
aS'waaaaay'
p5358
aS'waaaay'
p5359
aS'waar'
p5360
aS'waard'
p5361
aS'waardeloo'
p5362
aS'wack'
p5363
aS'wait'
p5364
aS'wak'
p5365
aS'wal'
p5366
aS'walk'
p5367
aS'wallet'
p5368
aS'wallpap'
p5369
aVwank
p5370
aS'wann'
p5371
aS'want'
p5372
aS'war'
p5373
aVwarf
p5374
aS'warn'
p5375
aS'warranty'
p5376
aS'wary'
p5377
aS'wash'
p5378
aVwashington
p5379
aS'wasn'
p5380
aS'wass'
p5381
aS'wast'
p5382
aS'wat'
p5383
aS'watch'
p5384
aS'watson'
p5385
aVwav
p5386
aS'way'
p5387
aS'wayn'
p5388
aVweak
p5389
aS'wear'
p5390
aS'weath'
p5391
aS'web'
p5392
aS'webc'
p5393
aS'webcast'
p5394
aS'webgl'
p5395
aS'webhostingcoupon'
p5396
aVwebin
p5397
aS'webmast'
p5398
aS'webmatrix'
p5399
aS'webo'
p5400
aS'webp'
p5401
aVwebpronew
p5402
aS'webshop'
p5403
aS'websit'
p5404
aS'websitespark'
p5405
aS'webwinkel'
p5406
aS'weck'
p5407
aS'wednesday'
p5408
aVweek
p5409
aS'weekend'
p5410
aVweer
p5411
aVweetapplehetaltijdbet
p5412
aS'weg'
p5413
aS'weird'
p5414
aS'weiterhin'
p5415
aS'welc'
p5416
aS'welch'
p5417
aVwelcom
p5418
aS'welcometotwit'
p5419
aS'wen'
p5420
aS'wendywil'
p5421
aS'wenig'
p5422
aVwent
p5423
aVwerd
p5424
aS'werk'
p5425
aS'west'
p5426
aS'wet'
p5427
aS'whaddupwitd'
p5428
aS'whal'
p5429
aS'whatsap'
p5430
aVwhe
p5431
aVwhi
p5432
aS'whit'
p5433
aS'whor'
p5434
aS'whts'
p5435
aVwhymsft
p5436
aVwi
p5437
aS'wichtigst'
p5438
aS'wid'
p5439
aS'widget'
p5440
aS'wie'
p5441
aVwied
p5442
aVwif
p5443
aVwififof
p5444
aS'wii'
p5445
aS'wikileak'
p5446
aVwikiped
p5447
aS'wild'
p5448
aS'will'
p5449
aVwillprovid
p5450
aVwin
p5451
aS'window'
p5452
aS'windows8'
p5453
aS'windows_phone'
p5454
aVwindowsaz
p5455
aVwindowslivebook
p5456
aS'windowsphon'
p5457
aS'windowsxp'
p5458
aVwink
p5459
aVwinna
p5460
aS'winningwithel'
p5461
aVwir
p5462
aS'wireless'
p5463
aS'wis'
p5464
aS'wish'
p5465
aS'wishh'
p5466
aS'wist'
p5467
aS'wit'
p5468
aS'wk'
p5469
aS'wmp'
p5470
aS'wo'
p5471
aS'wok'
p5472
aS'wom'
p5473
aS'won'
p5474
aS'wond'
p5475
aS'wong'
p5476
aVwont
p5477
aS'wood'
p5478
aS'woon'
p5479
aS'woooooo'
p5480
aS'wooooow'
p5481
aS'woooow'
p5482
aS'wor'
p5483
aS'word'
p5484
aS'wordperfect'
p5485
aS'wordpress'
p5486
aVwordt
p5487
aS'work'
p5488
aVworkflow
p5489
aVworkforc
p5490
aS'workload'
p5491
aS'workshop'
p5492
aS'workspac'
p5493
aVworld
p5494
aVworldrecess
p5495
aS'worldwid'
p5496
aVworry
p5497
aS'wors'
p5498
aS'worst'
p5499
aS'worstupdateev'
p5500
aS'wouldn'
p5501
aVwound
p5502
aS'wow'
p5503
aS'wowww'
p5504
aS'woz'
p5505
aVwp
p5506
aS'wp7'
p5507
aS'wpdev'
p5508
aS'wps'
p5509
aS'wrestl'
p5510
aS'writ'
p5511
aS'wrong'
p5512
aS'wtf'
p5513
aS'wtfh'
p5514
aVwth
p5515
aS'wuhu'
p5516
aVwyszukud
p5517
aS'xau'
p5518
aS'xbl'
p5519
aS'xbla'
p5520
aS'xbox'
p5521
aS'xbox360'
p5522
aVxboxl
p5523
aVxd
p5524
aS'xero'
p5525
aS'xeyirl'
p5526
aS'xico'
p5527
aS'xim'
p5528
aS'xing'
p5529
aS'xito'
p5530
aS'xk'
p5531
aS'xp'
p5532
aS'xq'
p5533
aS'xx'
p5534
aS'y'
p5535
aS'ya'
p5536
aS'yaa'
p5537
aS'yaha'
p5538
aVyahoo
p5539
aS'yal'
p5540
aS'ye'
p5541
aS'yeah'
p5542
aS'year'
p5543
aS'yeg'
p5544
aS'yeh'
p5545
aS'yellow'
p5546
aS'yellowg'
p5547
aS'yenilik'
p5548
aS'yeo'
p5549
aS'yespleas'
p5550
aS'yesterday'
p5551
aS'yg'
p5552
aS'yhoo'
p5553
aS'yield'
p5554
aS'yl'
p5555
aS'ym'
p5556
aS'yoconfieso'
p5557
aS'yojimbo'
p5558
aS'yoo'
p5559
aS'yooooooo'
p5560
aS'yor'
p5561
aS'yourdaysarenumb'
p5562
aS'yourleashel'
p5563
aS'yousendit'
p5564
aS'youtu'
p5565
aS'youtub'
p5566
aS'yoxdu'
p5567
aS'yr'
p5568
aS'yu'
p5569
aS'yummy'
p5570
aS'yumyumy'
p5571
aS'yup'
p5572
aS'yyc'
p5573
aS'z'
p5574
aS'zaaa'
p5575
aS'zaakgericht'
p5576
aVzahlreich
p5577
aS'zal'
p5578
aVzanedbateln
p5579
aS'zapatero'
p5580
aS'zapptek'
p5581
aS'zbot'
p5582
aS'zdnet'
p5583
aVzeer
p5584
aS'zegt'
p5585
aS'zek'
p5586
aS'zelf'
p5587
aS'zero'
p5588
aS'zeyler'
p5589
aS'zichtba'
p5590
aS'zien'
p5591
aS'ziet'
p5592
aS'zij'
p5593
aS'zijn'
p5594
aS'znen'
p5595
aS'zo'
p5596
aS'zoal'
p5597
aS'zoek'
p5598
aS'zoekdienst'
p5599
aVzombienpndes
p5600
aVzomby
p5601
aS'zomg'
p5602
aS'zoo'
p5603
aS'zoom'
p5604
aVzou
p5605
aS'zu'
p5606
aS'zuckerberg'
p5607
aS'zug'
p5608
aS'zuk'
p5609
aS'zum'
p5610
aVzun
p5611
aS'zwol'
p5612
aS'zyng'
p5613
aS'zzzzzzzzzzzzzzzzzzzz'
p5614
a.