(lp0
Vabsolut
p1
aVadd
p2
aVah
p3
aVall
p4
aVannerud
p5
aVappar
p6
aVare
p7
aVarrear
p8
aVaskshay
p9
aVate
p10
aVattack
p11
aVavoid
p12
aVbco
p13
aVbest
p14
aVbetter
p15
aVbit
p16
aVbodi
p17
aVbomb
p18
aVboy
p19
aVbribe
p20
aVbroke
p21
aVbusi
p22
aVcalum
p23
aVcarri
p24
aVcelebr
p25
aVchat
p26
aVchickenss
p27
aVchines
p28
aVchristian
p29
aVcouch
p30
aVcover
p31
aVcut
p32
aVcutest
p33
aVdanc
p34
aVdaughter
p35
aVday
p36
aVdicaprio
p37
aVdid
p38
aVdisgust
p39
aVdoctorat
p40
aVeaster
p41
aVegg
p42
aVegyptair
p43
aVelizabeth
p44
aVem
p45
aVever
p46
aVex
p47
aVexactli
p48
aVexcit
p49
aVfat
p50
aVflight
p51
aVfood
p52
aVforget
p53
aVfriend
p54
aVfull
p55
aVgive
p56
aVgoogl
p57
aVgot
p58
aVhappi
p59
aVhave
p60
aVhaven
p61
aVhere
p62
aVhi
p63
aVhijack
p64
aVhockey
p65
aVhol
p66
aVhous
p67
aVimag
p68
aVinstagr
p69
aVkid
p70
aVkill
p71
aVkit
p72
aVknow
p73
aVkohli
p74
aVkonrad
p75
aVleft
p76
aVleo
p77
aVleonardo
p78
aVlike
p79
aVlip
p80
aVliter
p81
aVll
p82
aVlook
p83
aVm
p84
aVmake
p85
aVmeme
p86
aVmen
p87
aVmicrophon
p88
aVmiller
p89
aVmillion
p90
aVminut
p91
aVmitten
p92
aVmock
p93
aVmodel
p94
aVmonday
p95
aVmore
p96
aVoba
p97
aVobi
p98
aVoffici
p99
aVold
p100
aVopen
p101
aVoscar
p102
aVowe
p103
aVpak
p104
aVpaparazzi
p105
aVpic
p106
aVpictur
p107
aVpolici
p108
aVprofessor
p109
aVpt
p110
aVpublish
p111
aVquand
p112
aVqueen
p113
aVquestion
p114
aVquit
p115
aVread
p116
aVreal
p117
aVrealli
p118
aVrecent
p119
aVreligion
p120
aVrememb
p121
aVreplac
p122
aVrespons
p123
aVrestock
p124
aVreuter
p125
aVroll
p126
aVsaid
p127
aVshing
p128
aVshite
p129
aVsl
p130
aVsnapchat
p131
aVsome
p132
aVspeech
p133
aVstatement
p134
aVstill
p135
aVswedish
p136
aVta
p137
aVtarget
p138
aVtax
p139
aVtelli
p140
aVterm
p141
aVthere
p142
aVthing
p143
aVtime
p144
aVtomorrow
p145
aVtonight
p146
aVtweet
p147
aVtwitter
p148
aVuk
p149
aVve
p150
aVvictim
p151
aVviratian
p152
aVwa
p153
aVwatch
p154
aVweather
p155
aVweight
p156
aVwentworth
p157
aVwere
p158
aVwhere
p159
aVwhite
p160
aVwild
p161
aVwork
p162
aVworst
p163
aVxma
p164
aVye
p165
aVyear
p166
aVyesterday
p167
aVyour
p168
aVziva
p169
a.